
/usr/lib64/flux/connectors/local.so:     file format elf64-x86-64


Disassembly of section .init:

000000000000e8d8 <_init>:
    e8d8:	f3 0f 1e fa          	endbr64 
    e8dc:	48 83 ec 08          	sub    $0x8,%rsp
    e8e0:	48 8b 05 d9 46 24 00 	mov    0x2446d9(%rip),%rax        # 252fc0 <__gmon_start__@Base>
    e8e7:	48 85 c0             	test   %rax,%rax
    e8ea:	74 02                	je     e8ee <_init+0x16>
    e8ec:	ff d0                	callq  *%rax
    e8ee:	48 83 c4 08          	add    $0x8,%rsp
    e8f2:	c3                   	retq   

Disassembly of section .plt:

000000000000e900 <.plt>:
    e900:	ff 35 f2 3d 24 00    	pushq  0x243df2(%rip)        # 2526f8 <_GLOBAL_OFFSET_TABLE_+0x8>
    e906:	f2 ff 25 f3 3d 24 00 	bnd jmpq *0x243df3(%rip)        # 252700 <_GLOBAL_OFFSET_TABLE_+0x10>
    e90d:	0f 1f 00             	nopl   (%rax)
    e910:	f3 0f 1e fa          	endbr64 
    e914:	68 00 00 00 00       	pushq  $0x0
    e919:	f2 e9 e1 ff ff ff    	bnd jmpq e900 <.plt>
    e91f:	90                   	nop
    e920:	f3 0f 1e fa          	endbr64 
    e924:	68 01 00 00 00       	pushq  $0x1
    e929:	f2 e9 d1 ff ff ff    	bnd jmpq e900 <.plt>
    e92f:	90                   	nop
    e930:	f3 0f 1e fa          	endbr64 
    e934:	68 02 00 00 00       	pushq  $0x2
    e939:	f2 e9 c1 ff ff ff    	bnd jmpq e900 <.plt>
    e93f:	90                   	nop
    e940:	f3 0f 1e fa          	endbr64 
    e944:	68 03 00 00 00       	pushq  $0x3
    e949:	f2 e9 b1 ff ff ff    	bnd jmpq e900 <.plt>
    e94f:	90                   	nop
    e950:	f3 0f 1e fa          	endbr64 
    e954:	68 04 00 00 00       	pushq  $0x4
    e959:	f2 e9 a1 ff ff ff    	bnd jmpq e900 <.plt>
    e95f:	90                   	nop
    e960:	f3 0f 1e fa          	endbr64 
    e964:	68 05 00 00 00       	pushq  $0x5
    e969:	f2 e9 91 ff ff ff    	bnd jmpq e900 <.plt>
    e96f:	90                   	nop
    e970:	f3 0f 1e fa          	endbr64 
    e974:	68 06 00 00 00       	pushq  $0x6
    e979:	f2 e9 81 ff ff ff    	bnd jmpq e900 <.plt>
    e97f:	90                   	nop
    e980:	f3 0f 1e fa          	endbr64 
    e984:	68 07 00 00 00       	pushq  $0x7
    e989:	f2 e9 71 ff ff ff    	bnd jmpq e900 <.plt>
    e98f:	90                   	nop
    e990:	f3 0f 1e fa          	endbr64 
    e994:	68 08 00 00 00       	pushq  $0x8
    e999:	f2 e9 61 ff ff ff    	bnd jmpq e900 <.plt>
    e99f:	90                   	nop
    e9a0:	f3 0f 1e fa          	endbr64 
    e9a4:	68 09 00 00 00       	pushq  $0x9
    e9a9:	f2 e9 51 ff ff ff    	bnd jmpq e900 <.plt>
    e9af:	90                   	nop
    e9b0:	f3 0f 1e fa          	endbr64 
    e9b4:	68 0a 00 00 00       	pushq  $0xa
    e9b9:	f2 e9 41 ff ff ff    	bnd jmpq e900 <.plt>
    e9bf:	90                   	nop
    e9c0:	f3 0f 1e fa          	endbr64 
    e9c4:	68 0b 00 00 00       	pushq  $0xb
    e9c9:	f2 e9 31 ff ff ff    	bnd jmpq e900 <.plt>
    e9cf:	90                   	nop
    e9d0:	f3 0f 1e fa          	endbr64 
    e9d4:	68 0c 00 00 00       	pushq  $0xc
    e9d9:	f2 e9 21 ff ff ff    	bnd jmpq e900 <.plt>
    e9df:	90                   	nop
    e9e0:	f3 0f 1e fa          	endbr64 
    e9e4:	68 0d 00 00 00       	pushq  $0xd
    e9e9:	f2 e9 11 ff ff ff    	bnd jmpq e900 <.plt>
    e9ef:	90                   	nop
    e9f0:	f3 0f 1e fa          	endbr64 
    e9f4:	68 0e 00 00 00       	pushq  $0xe
    e9f9:	f2 e9 01 ff ff ff    	bnd jmpq e900 <.plt>
    e9ff:	90                   	nop
    ea00:	f3 0f 1e fa          	endbr64 
    ea04:	68 0f 00 00 00       	pushq  $0xf
    ea09:	f2 e9 f1 fe ff ff    	bnd jmpq e900 <.plt>
    ea0f:	90                   	nop
    ea10:	f3 0f 1e fa          	endbr64 
    ea14:	68 10 00 00 00       	pushq  $0x10
    ea19:	f2 e9 e1 fe ff ff    	bnd jmpq e900 <.plt>
    ea1f:	90                   	nop
    ea20:	f3 0f 1e fa          	endbr64 
    ea24:	68 11 00 00 00       	pushq  $0x11
    ea29:	f2 e9 d1 fe ff ff    	bnd jmpq e900 <.plt>
    ea2f:	90                   	nop
    ea30:	f3 0f 1e fa          	endbr64 
    ea34:	68 12 00 00 00       	pushq  $0x12
    ea39:	f2 e9 c1 fe ff ff    	bnd jmpq e900 <.plt>
    ea3f:	90                   	nop
    ea40:	f3 0f 1e fa          	endbr64 
    ea44:	68 13 00 00 00       	pushq  $0x13
    ea49:	f2 e9 b1 fe ff ff    	bnd jmpq e900 <.plt>
    ea4f:	90                   	nop
    ea50:	f3 0f 1e fa          	endbr64 
    ea54:	68 14 00 00 00       	pushq  $0x14
    ea59:	f2 e9 a1 fe ff ff    	bnd jmpq e900 <.plt>
    ea5f:	90                   	nop
    ea60:	f3 0f 1e fa          	endbr64 
    ea64:	68 15 00 00 00       	pushq  $0x15
    ea69:	f2 e9 91 fe ff ff    	bnd jmpq e900 <.plt>
    ea6f:	90                   	nop
    ea70:	f3 0f 1e fa          	endbr64 
    ea74:	68 16 00 00 00       	pushq  $0x16
    ea79:	f2 e9 81 fe ff ff    	bnd jmpq e900 <.plt>
    ea7f:	90                   	nop
    ea80:	f3 0f 1e fa          	endbr64 
    ea84:	68 17 00 00 00       	pushq  $0x17
    ea89:	f2 e9 71 fe ff ff    	bnd jmpq e900 <.plt>
    ea8f:	90                   	nop
    ea90:	f3 0f 1e fa          	endbr64 
    ea94:	68 18 00 00 00       	pushq  $0x18
    ea99:	f2 e9 61 fe ff ff    	bnd jmpq e900 <.plt>
    ea9f:	90                   	nop
    eaa0:	f3 0f 1e fa          	endbr64 
    eaa4:	68 19 00 00 00       	pushq  $0x19
    eaa9:	f2 e9 51 fe ff ff    	bnd jmpq e900 <.plt>
    eaaf:	90                   	nop
    eab0:	f3 0f 1e fa          	endbr64 
    eab4:	68 1a 00 00 00       	pushq  $0x1a
    eab9:	f2 e9 41 fe ff ff    	bnd jmpq e900 <.plt>
    eabf:	90                   	nop
    eac0:	f3 0f 1e fa          	endbr64 
    eac4:	68 1b 00 00 00       	pushq  $0x1b
    eac9:	f2 e9 31 fe ff ff    	bnd jmpq e900 <.plt>
    eacf:	90                   	nop
    ead0:	f3 0f 1e fa          	endbr64 
    ead4:	68 1c 00 00 00       	pushq  $0x1c
    ead9:	f2 e9 21 fe ff ff    	bnd jmpq e900 <.plt>
    eadf:	90                   	nop
    eae0:	f3 0f 1e fa          	endbr64 
    eae4:	68 1d 00 00 00       	pushq  $0x1d
    eae9:	f2 e9 11 fe ff ff    	bnd jmpq e900 <.plt>
    eaef:	90                   	nop
    eaf0:	f3 0f 1e fa          	endbr64 
    eaf4:	68 1e 00 00 00       	pushq  $0x1e
    eaf9:	f2 e9 01 fe ff ff    	bnd jmpq e900 <.plt>
    eaff:	90                   	nop
    eb00:	f3 0f 1e fa          	endbr64 
    eb04:	68 1f 00 00 00       	pushq  $0x1f
    eb09:	f2 e9 f1 fd ff ff    	bnd jmpq e900 <.plt>
    eb0f:	90                   	nop
    eb10:	f3 0f 1e fa          	endbr64 
    eb14:	68 20 00 00 00       	pushq  $0x20
    eb19:	f2 e9 e1 fd ff ff    	bnd jmpq e900 <.plt>
    eb1f:	90                   	nop
    eb20:	f3 0f 1e fa          	endbr64 
    eb24:	68 21 00 00 00       	pushq  $0x21
    eb29:	f2 e9 d1 fd ff ff    	bnd jmpq e900 <.plt>
    eb2f:	90                   	nop
    eb30:	f3 0f 1e fa          	endbr64 
    eb34:	68 22 00 00 00       	pushq  $0x22
    eb39:	f2 e9 c1 fd ff ff    	bnd jmpq e900 <.plt>
    eb3f:	90                   	nop
    eb40:	f3 0f 1e fa          	endbr64 
    eb44:	68 23 00 00 00       	pushq  $0x23
    eb49:	f2 e9 b1 fd ff ff    	bnd jmpq e900 <.plt>
    eb4f:	90                   	nop
    eb50:	f3 0f 1e fa          	endbr64 
    eb54:	68 24 00 00 00       	pushq  $0x24
    eb59:	f2 e9 a1 fd ff ff    	bnd jmpq e900 <.plt>
    eb5f:	90                   	nop
    eb60:	f3 0f 1e fa          	endbr64 
    eb64:	68 25 00 00 00       	pushq  $0x25
    eb69:	f2 e9 91 fd ff ff    	bnd jmpq e900 <.plt>
    eb6f:	90                   	nop
    eb70:	f3 0f 1e fa          	endbr64 
    eb74:	68 26 00 00 00       	pushq  $0x26
    eb79:	f2 e9 81 fd ff ff    	bnd jmpq e900 <.plt>
    eb7f:	90                   	nop
    eb80:	f3 0f 1e fa          	endbr64 
    eb84:	68 27 00 00 00       	pushq  $0x27
    eb89:	f2 e9 71 fd ff ff    	bnd jmpq e900 <.plt>
    eb8f:	90                   	nop
    eb90:	f3 0f 1e fa          	endbr64 
    eb94:	68 28 00 00 00       	pushq  $0x28
    eb99:	f2 e9 61 fd ff ff    	bnd jmpq e900 <.plt>
    eb9f:	90                   	nop
    eba0:	f3 0f 1e fa          	endbr64 
    eba4:	68 29 00 00 00       	pushq  $0x29
    eba9:	f2 e9 51 fd ff ff    	bnd jmpq e900 <.plt>
    ebaf:	90                   	nop
    ebb0:	f3 0f 1e fa          	endbr64 
    ebb4:	68 2a 00 00 00       	pushq  $0x2a
    ebb9:	f2 e9 41 fd ff ff    	bnd jmpq e900 <.plt>
    ebbf:	90                   	nop
    ebc0:	f3 0f 1e fa          	endbr64 
    ebc4:	68 2b 00 00 00       	pushq  $0x2b
    ebc9:	f2 e9 31 fd ff ff    	bnd jmpq e900 <.plt>
    ebcf:	90                   	nop
    ebd0:	f3 0f 1e fa          	endbr64 
    ebd4:	68 2c 00 00 00       	pushq  $0x2c
    ebd9:	f2 e9 21 fd ff ff    	bnd jmpq e900 <.plt>
    ebdf:	90                   	nop
    ebe0:	f3 0f 1e fa          	endbr64 
    ebe4:	68 2d 00 00 00       	pushq  $0x2d
    ebe9:	f2 e9 11 fd ff ff    	bnd jmpq e900 <.plt>
    ebef:	90                   	nop
    ebf0:	f3 0f 1e fa          	endbr64 
    ebf4:	68 2e 00 00 00       	pushq  $0x2e
    ebf9:	f2 e9 01 fd ff ff    	bnd jmpq e900 <.plt>
    ebff:	90                   	nop
    ec00:	f3 0f 1e fa          	endbr64 
    ec04:	68 2f 00 00 00       	pushq  $0x2f
    ec09:	f2 e9 f1 fc ff ff    	bnd jmpq e900 <.plt>
    ec0f:	90                   	nop
    ec10:	f3 0f 1e fa          	endbr64 
    ec14:	68 30 00 00 00       	pushq  $0x30
    ec19:	f2 e9 e1 fc ff ff    	bnd jmpq e900 <.plt>
    ec1f:	90                   	nop
    ec20:	f3 0f 1e fa          	endbr64 
    ec24:	68 31 00 00 00       	pushq  $0x31
    ec29:	f2 e9 d1 fc ff ff    	bnd jmpq e900 <.plt>
    ec2f:	90                   	nop
    ec30:	f3 0f 1e fa          	endbr64 
    ec34:	68 32 00 00 00       	pushq  $0x32
    ec39:	f2 e9 c1 fc ff ff    	bnd jmpq e900 <.plt>
    ec3f:	90                   	nop
    ec40:	f3 0f 1e fa          	endbr64 
    ec44:	68 33 00 00 00       	pushq  $0x33
    ec49:	f2 e9 b1 fc ff ff    	bnd jmpq e900 <.plt>
    ec4f:	90                   	nop
    ec50:	f3 0f 1e fa          	endbr64 
    ec54:	68 34 00 00 00       	pushq  $0x34
    ec59:	f2 e9 a1 fc ff ff    	bnd jmpq e900 <.plt>
    ec5f:	90                   	nop
    ec60:	f3 0f 1e fa          	endbr64 
    ec64:	68 35 00 00 00       	pushq  $0x35
    ec69:	f2 e9 91 fc ff ff    	bnd jmpq e900 <.plt>
    ec6f:	90                   	nop
    ec70:	f3 0f 1e fa          	endbr64 
    ec74:	68 36 00 00 00       	pushq  $0x36
    ec79:	f2 e9 81 fc ff ff    	bnd jmpq e900 <.plt>
    ec7f:	90                   	nop
    ec80:	f3 0f 1e fa          	endbr64 
    ec84:	68 37 00 00 00       	pushq  $0x37
    ec89:	f2 e9 71 fc ff ff    	bnd jmpq e900 <.plt>
    ec8f:	90                   	nop
    ec90:	f3 0f 1e fa          	endbr64 
    ec94:	68 38 00 00 00       	pushq  $0x38
    ec99:	f2 e9 61 fc ff ff    	bnd jmpq e900 <.plt>
    ec9f:	90                   	nop
    eca0:	f3 0f 1e fa          	endbr64 
    eca4:	68 39 00 00 00       	pushq  $0x39
    eca9:	f2 e9 51 fc ff ff    	bnd jmpq e900 <.plt>
    ecaf:	90                   	nop
    ecb0:	f3 0f 1e fa          	endbr64 
    ecb4:	68 3a 00 00 00       	pushq  $0x3a
    ecb9:	f2 e9 41 fc ff ff    	bnd jmpq e900 <.plt>
    ecbf:	90                   	nop
    ecc0:	f3 0f 1e fa          	endbr64 
    ecc4:	68 3b 00 00 00       	pushq  $0x3b
    ecc9:	f2 e9 31 fc ff ff    	bnd jmpq e900 <.plt>
    eccf:	90                   	nop
    ecd0:	f3 0f 1e fa          	endbr64 
    ecd4:	68 3c 00 00 00       	pushq  $0x3c
    ecd9:	f2 e9 21 fc ff ff    	bnd jmpq e900 <.plt>
    ecdf:	90                   	nop
    ece0:	f3 0f 1e fa          	endbr64 
    ece4:	68 3d 00 00 00       	pushq  $0x3d
    ece9:	f2 e9 11 fc ff ff    	bnd jmpq e900 <.plt>
    ecef:	90                   	nop
    ecf0:	f3 0f 1e fa          	endbr64 
    ecf4:	68 3e 00 00 00       	pushq  $0x3e
    ecf9:	f2 e9 01 fc ff ff    	bnd jmpq e900 <.plt>
    ecff:	90                   	nop
    ed00:	f3 0f 1e fa          	endbr64 
    ed04:	68 3f 00 00 00       	pushq  $0x3f
    ed09:	f2 e9 f1 fb ff ff    	bnd jmpq e900 <.plt>
    ed0f:	90                   	nop
    ed10:	f3 0f 1e fa          	endbr64 
    ed14:	68 40 00 00 00       	pushq  $0x40
    ed19:	f2 e9 e1 fb ff ff    	bnd jmpq e900 <.plt>
    ed1f:	90                   	nop
    ed20:	f3 0f 1e fa          	endbr64 
    ed24:	68 41 00 00 00       	pushq  $0x41
    ed29:	f2 e9 d1 fb ff ff    	bnd jmpq e900 <.plt>
    ed2f:	90                   	nop
    ed30:	f3 0f 1e fa          	endbr64 
    ed34:	68 42 00 00 00       	pushq  $0x42
    ed39:	f2 e9 c1 fb ff ff    	bnd jmpq e900 <.plt>
    ed3f:	90                   	nop
    ed40:	f3 0f 1e fa          	endbr64 
    ed44:	68 43 00 00 00       	pushq  $0x43
    ed49:	f2 e9 b1 fb ff ff    	bnd jmpq e900 <.plt>
    ed4f:	90                   	nop
    ed50:	f3 0f 1e fa          	endbr64 
    ed54:	68 44 00 00 00       	pushq  $0x44
    ed59:	f2 e9 a1 fb ff ff    	bnd jmpq e900 <.plt>
    ed5f:	90                   	nop
    ed60:	f3 0f 1e fa          	endbr64 
    ed64:	68 45 00 00 00       	pushq  $0x45
    ed69:	f2 e9 91 fb ff ff    	bnd jmpq e900 <.plt>
    ed6f:	90                   	nop
    ed70:	f3 0f 1e fa          	endbr64 
    ed74:	68 46 00 00 00       	pushq  $0x46
    ed79:	f2 e9 81 fb ff ff    	bnd jmpq e900 <.plt>
    ed7f:	90                   	nop
    ed80:	f3 0f 1e fa          	endbr64 
    ed84:	68 47 00 00 00       	pushq  $0x47
    ed89:	f2 e9 71 fb ff ff    	bnd jmpq e900 <.plt>
    ed8f:	90                   	nop
    ed90:	f3 0f 1e fa          	endbr64 
    ed94:	68 48 00 00 00       	pushq  $0x48
    ed99:	f2 e9 61 fb ff ff    	bnd jmpq e900 <.plt>
    ed9f:	90                   	nop
    eda0:	f3 0f 1e fa          	endbr64 
    eda4:	68 49 00 00 00       	pushq  $0x49
    eda9:	f2 e9 51 fb ff ff    	bnd jmpq e900 <.plt>
    edaf:	90                   	nop
    edb0:	f3 0f 1e fa          	endbr64 
    edb4:	68 4a 00 00 00       	pushq  $0x4a
    edb9:	f2 e9 41 fb ff ff    	bnd jmpq e900 <.plt>
    edbf:	90                   	nop
    edc0:	f3 0f 1e fa          	endbr64 
    edc4:	68 4b 00 00 00       	pushq  $0x4b
    edc9:	f2 e9 31 fb ff ff    	bnd jmpq e900 <.plt>
    edcf:	90                   	nop
    edd0:	f3 0f 1e fa          	endbr64 
    edd4:	68 4c 00 00 00       	pushq  $0x4c
    edd9:	f2 e9 21 fb ff ff    	bnd jmpq e900 <.plt>
    eddf:	90                   	nop
    ede0:	f3 0f 1e fa          	endbr64 
    ede4:	68 4d 00 00 00       	pushq  $0x4d
    ede9:	f2 e9 11 fb ff ff    	bnd jmpq e900 <.plt>
    edef:	90                   	nop
    edf0:	f3 0f 1e fa          	endbr64 
    edf4:	68 4e 00 00 00       	pushq  $0x4e
    edf9:	f2 e9 01 fb ff ff    	bnd jmpq e900 <.plt>
    edff:	90                   	nop
    ee00:	f3 0f 1e fa          	endbr64 
    ee04:	68 4f 00 00 00       	pushq  $0x4f
    ee09:	f2 e9 f1 fa ff ff    	bnd jmpq e900 <.plt>
    ee0f:	90                   	nop
    ee10:	f3 0f 1e fa          	endbr64 
    ee14:	68 50 00 00 00       	pushq  $0x50
    ee19:	f2 e9 e1 fa ff ff    	bnd jmpq e900 <.plt>
    ee1f:	90                   	nop
    ee20:	f3 0f 1e fa          	endbr64 
    ee24:	68 51 00 00 00       	pushq  $0x51
    ee29:	f2 e9 d1 fa ff ff    	bnd jmpq e900 <.plt>
    ee2f:	90                   	nop
    ee30:	f3 0f 1e fa          	endbr64 
    ee34:	68 52 00 00 00       	pushq  $0x52
    ee39:	f2 e9 c1 fa ff ff    	bnd jmpq e900 <.plt>
    ee3f:	90                   	nop
    ee40:	f3 0f 1e fa          	endbr64 
    ee44:	68 53 00 00 00       	pushq  $0x53
    ee49:	f2 e9 b1 fa ff ff    	bnd jmpq e900 <.plt>
    ee4f:	90                   	nop
    ee50:	f3 0f 1e fa          	endbr64 
    ee54:	68 54 00 00 00       	pushq  $0x54
    ee59:	f2 e9 a1 fa ff ff    	bnd jmpq e900 <.plt>
    ee5f:	90                   	nop
    ee60:	f3 0f 1e fa          	endbr64 
    ee64:	68 55 00 00 00       	pushq  $0x55
    ee69:	f2 e9 91 fa ff ff    	bnd jmpq e900 <.plt>
    ee6f:	90                   	nop
    ee70:	f3 0f 1e fa          	endbr64 
    ee74:	68 56 00 00 00       	pushq  $0x56
    ee79:	f2 e9 81 fa ff ff    	bnd jmpq e900 <.plt>
    ee7f:	90                   	nop
    ee80:	f3 0f 1e fa          	endbr64 
    ee84:	68 57 00 00 00       	pushq  $0x57
    ee89:	f2 e9 71 fa ff ff    	bnd jmpq e900 <.plt>
    ee8f:	90                   	nop
    ee90:	f3 0f 1e fa          	endbr64 
    ee94:	68 58 00 00 00       	pushq  $0x58
    ee99:	f2 e9 61 fa ff ff    	bnd jmpq e900 <.plt>
    ee9f:	90                   	nop
    eea0:	f3 0f 1e fa          	endbr64 
    eea4:	68 59 00 00 00       	pushq  $0x59
    eea9:	f2 e9 51 fa ff ff    	bnd jmpq e900 <.plt>
    eeaf:	90                   	nop
    eeb0:	f3 0f 1e fa          	endbr64 
    eeb4:	68 5a 00 00 00       	pushq  $0x5a
    eeb9:	f2 e9 41 fa ff ff    	bnd jmpq e900 <.plt>
    eebf:	90                   	nop
    eec0:	f3 0f 1e fa          	endbr64 
    eec4:	68 5b 00 00 00       	pushq  $0x5b
    eec9:	f2 e9 31 fa ff ff    	bnd jmpq e900 <.plt>
    eecf:	90                   	nop
    eed0:	f3 0f 1e fa          	endbr64 
    eed4:	68 5c 00 00 00       	pushq  $0x5c
    eed9:	f2 e9 21 fa ff ff    	bnd jmpq e900 <.plt>
    eedf:	90                   	nop
    eee0:	f3 0f 1e fa          	endbr64 
    eee4:	68 5d 00 00 00       	pushq  $0x5d
    eee9:	f2 e9 11 fa ff ff    	bnd jmpq e900 <.plt>
    eeef:	90                   	nop
    eef0:	f3 0f 1e fa          	endbr64 
    eef4:	68 5e 00 00 00       	pushq  $0x5e
    eef9:	f2 e9 01 fa ff ff    	bnd jmpq e900 <.plt>
    eeff:	90                   	nop
    ef00:	f3 0f 1e fa          	endbr64 
    ef04:	68 5f 00 00 00       	pushq  $0x5f
    ef09:	f2 e9 f1 f9 ff ff    	bnd jmpq e900 <.plt>
    ef0f:	90                   	nop
    ef10:	f3 0f 1e fa          	endbr64 
    ef14:	68 60 00 00 00       	pushq  $0x60
    ef19:	f2 e9 e1 f9 ff ff    	bnd jmpq e900 <.plt>
    ef1f:	90                   	nop
    ef20:	f3 0f 1e fa          	endbr64 
    ef24:	68 61 00 00 00       	pushq  $0x61
    ef29:	f2 e9 d1 f9 ff ff    	bnd jmpq e900 <.plt>
    ef2f:	90                   	nop
    ef30:	f3 0f 1e fa          	endbr64 
    ef34:	68 62 00 00 00       	pushq  $0x62
    ef39:	f2 e9 c1 f9 ff ff    	bnd jmpq e900 <.plt>
    ef3f:	90                   	nop
    ef40:	f3 0f 1e fa          	endbr64 
    ef44:	68 63 00 00 00       	pushq  $0x63
    ef49:	f2 e9 b1 f9 ff ff    	bnd jmpq e900 <.plt>
    ef4f:	90                   	nop
    ef50:	f3 0f 1e fa          	endbr64 
    ef54:	68 64 00 00 00       	pushq  $0x64
    ef59:	f2 e9 a1 f9 ff ff    	bnd jmpq e900 <.plt>
    ef5f:	90                   	nop
    ef60:	f3 0f 1e fa          	endbr64 
    ef64:	68 65 00 00 00       	pushq  $0x65
    ef69:	f2 e9 91 f9 ff ff    	bnd jmpq e900 <.plt>
    ef6f:	90                   	nop
    ef70:	f3 0f 1e fa          	endbr64 
    ef74:	68 66 00 00 00       	pushq  $0x66
    ef79:	f2 e9 81 f9 ff ff    	bnd jmpq e900 <.plt>
    ef7f:	90                   	nop
    ef80:	f3 0f 1e fa          	endbr64 
    ef84:	68 67 00 00 00       	pushq  $0x67
    ef89:	f2 e9 71 f9 ff ff    	bnd jmpq e900 <.plt>
    ef8f:	90                   	nop
    ef90:	f3 0f 1e fa          	endbr64 
    ef94:	68 68 00 00 00       	pushq  $0x68
    ef99:	f2 e9 61 f9 ff ff    	bnd jmpq e900 <.plt>
    ef9f:	90                   	nop
    efa0:	f3 0f 1e fa          	endbr64 
    efa4:	68 69 00 00 00       	pushq  $0x69
    efa9:	f2 e9 51 f9 ff ff    	bnd jmpq e900 <.plt>
    efaf:	90                   	nop
    efb0:	f3 0f 1e fa          	endbr64 
    efb4:	68 6a 00 00 00       	pushq  $0x6a
    efb9:	f2 e9 41 f9 ff ff    	bnd jmpq e900 <.plt>
    efbf:	90                   	nop
    efc0:	f3 0f 1e fa          	endbr64 
    efc4:	68 6b 00 00 00       	pushq  $0x6b
    efc9:	f2 e9 31 f9 ff ff    	bnd jmpq e900 <.plt>
    efcf:	90                   	nop
    efd0:	f3 0f 1e fa          	endbr64 
    efd4:	68 6c 00 00 00       	pushq  $0x6c
    efd9:	f2 e9 21 f9 ff ff    	bnd jmpq e900 <.plt>
    efdf:	90                   	nop
    efe0:	f3 0f 1e fa          	endbr64 
    efe4:	68 6d 00 00 00       	pushq  $0x6d
    efe9:	f2 e9 11 f9 ff ff    	bnd jmpq e900 <.plt>
    efef:	90                   	nop
    eff0:	f3 0f 1e fa          	endbr64 
    eff4:	68 6e 00 00 00       	pushq  $0x6e
    eff9:	f2 e9 01 f9 ff ff    	bnd jmpq e900 <.plt>
    efff:	90                   	nop
    f000:	f3 0f 1e fa          	endbr64 
    f004:	68 6f 00 00 00       	pushq  $0x6f
    f009:	f2 e9 f1 f8 ff ff    	bnd jmpq e900 <.plt>
    f00f:	90                   	nop
    f010:	f3 0f 1e fa          	endbr64 
    f014:	68 70 00 00 00       	pushq  $0x70
    f019:	f2 e9 e1 f8 ff ff    	bnd jmpq e900 <.plt>
    f01f:	90                   	nop
    f020:	f3 0f 1e fa          	endbr64 
    f024:	68 71 00 00 00       	pushq  $0x71
    f029:	f2 e9 d1 f8 ff ff    	bnd jmpq e900 <.plt>
    f02f:	90                   	nop
    f030:	f3 0f 1e fa          	endbr64 
    f034:	68 72 00 00 00       	pushq  $0x72
    f039:	f2 e9 c1 f8 ff ff    	bnd jmpq e900 <.plt>
    f03f:	90                   	nop
    f040:	f3 0f 1e fa          	endbr64 
    f044:	68 73 00 00 00       	pushq  $0x73
    f049:	f2 e9 b1 f8 ff ff    	bnd jmpq e900 <.plt>
    f04f:	90                   	nop
    f050:	f3 0f 1e fa          	endbr64 
    f054:	68 74 00 00 00       	pushq  $0x74
    f059:	f2 e9 a1 f8 ff ff    	bnd jmpq e900 <.plt>
    f05f:	90                   	nop
    f060:	f3 0f 1e fa          	endbr64 
    f064:	68 75 00 00 00       	pushq  $0x75
    f069:	f2 e9 91 f8 ff ff    	bnd jmpq e900 <.plt>
    f06f:	90                   	nop
    f070:	f3 0f 1e fa          	endbr64 
    f074:	68 76 00 00 00       	pushq  $0x76
    f079:	f2 e9 81 f8 ff ff    	bnd jmpq e900 <.plt>
    f07f:	90                   	nop
    f080:	f3 0f 1e fa          	endbr64 
    f084:	68 77 00 00 00       	pushq  $0x77
    f089:	f2 e9 71 f8 ff ff    	bnd jmpq e900 <.plt>
    f08f:	90                   	nop
    f090:	f3 0f 1e fa          	endbr64 
    f094:	68 78 00 00 00       	pushq  $0x78
    f099:	f2 e9 61 f8 ff ff    	bnd jmpq e900 <.plt>
    f09f:	90                   	nop
    f0a0:	f3 0f 1e fa          	endbr64 
    f0a4:	68 79 00 00 00       	pushq  $0x79
    f0a9:	f2 e9 51 f8 ff ff    	bnd jmpq e900 <.plt>
    f0af:	90                   	nop
    f0b0:	f3 0f 1e fa          	endbr64 
    f0b4:	68 7a 00 00 00       	pushq  $0x7a
    f0b9:	f2 e9 41 f8 ff ff    	bnd jmpq e900 <.plt>
    f0bf:	90                   	nop
    f0c0:	f3 0f 1e fa          	endbr64 
    f0c4:	68 7b 00 00 00       	pushq  $0x7b
    f0c9:	f2 e9 31 f8 ff ff    	bnd jmpq e900 <.plt>
    f0cf:	90                   	nop
    f0d0:	f3 0f 1e fa          	endbr64 
    f0d4:	68 7c 00 00 00       	pushq  $0x7c
    f0d9:	f2 e9 21 f8 ff ff    	bnd jmpq e900 <.plt>
    f0df:	90                   	nop
    f0e0:	f3 0f 1e fa          	endbr64 
    f0e4:	68 7d 00 00 00       	pushq  $0x7d
    f0e9:	f2 e9 11 f8 ff ff    	bnd jmpq e900 <.plt>
    f0ef:	90                   	nop
    f0f0:	f3 0f 1e fa          	endbr64 
    f0f4:	68 7e 00 00 00       	pushq  $0x7e
    f0f9:	f2 e9 01 f8 ff ff    	bnd jmpq e900 <.plt>
    f0ff:	90                   	nop
    f100:	f3 0f 1e fa          	endbr64 
    f104:	68 7f 00 00 00       	pushq  $0x7f
    f109:	f2 e9 f1 f7 ff ff    	bnd jmpq e900 <.plt>
    f10f:	90                   	nop
    f110:	f3 0f 1e fa          	endbr64 
    f114:	68 80 00 00 00       	pushq  $0x80
    f119:	f2 e9 e1 f7 ff ff    	bnd jmpq e900 <.plt>
    f11f:	90                   	nop
    f120:	f3 0f 1e fa          	endbr64 
    f124:	68 81 00 00 00       	pushq  $0x81
    f129:	f2 e9 d1 f7 ff ff    	bnd jmpq e900 <.plt>
    f12f:	90                   	nop
    f130:	f3 0f 1e fa          	endbr64 
    f134:	68 82 00 00 00       	pushq  $0x82
    f139:	f2 e9 c1 f7 ff ff    	bnd jmpq e900 <.plt>
    f13f:	90                   	nop
    f140:	f3 0f 1e fa          	endbr64 
    f144:	68 83 00 00 00       	pushq  $0x83
    f149:	f2 e9 b1 f7 ff ff    	bnd jmpq e900 <.plt>
    f14f:	90                   	nop
    f150:	f3 0f 1e fa          	endbr64 
    f154:	68 84 00 00 00       	pushq  $0x84
    f159:	f2 e9 a1 f7 ff ff    	bnd jmpq e900 <.plt>
    f15f:	90                   	nop
    f160:	f3 0f 1e fa          	endbr64 
    f164:	68 85 00 00 00       	pushq  $0x85
    f169:	f2 e9 91 f7 ff ff    	bnd jmpq e900 <.plt>
    f16f:	90                   	nop
    f170:	f3 0f 1e fa          	endbr64 
    f174:	68 86 00 00 00       	pushq  $0x86
    f179:	f2 e9 81 f7 ff ff    	bnd jmpq e900 <.plt>
    f17f:	90                   	nop
    f180:	f3 0f 1e fa          	endbr64 
    f184:	68 87 00 00 00       	pushq  $0x87
    f189:	f2 e9 71 f7 ff ff    	bnd jmpq e900 <.plt>
    f18f:	90                   	nop
    f190:	f3 0f 1e fa          	endbr64 
    f194:	68 88 00 00 00       	pushq  $0x88
    f199:	f2 e9 61 f7 ff ff    	bnd jmpq e900 <.plt>
    f19f:	90                   	nop
    f1a0:	f3 0f 1e fa          	endbr64 
    f1a4:	68 89 00 00 00       	pushq  $0x89
    f1a9:	f2 e9 51 f7 ff ff    	bnd jmpq e900 <.plt>
    f1af:	90                   	nop
    f1b0:	f3 0f 1e fa          	endbr64 
    f1b4:	68 8a 00 00 00       	pushq  $0x8a
    f1b9:	f2 e9 41 f7 ff ff    	bnd jmpq e900 <.plt>
    f1bf:	90                   	nop
    f1c0:	f3 0f 1e fa          	endbr64 
    f1c4:	68 8b 00 00 00       	pushq  $0x8b
    f1c9:	f2 e9 31 f7 ff ff    	bnd jmpq e900 <.plt>
    f1cf:	90                   	nop
    f1d0:	f3 0f 1e fa          	endbr64 
    f1d4:	68 8c 00 00 00       	pushq  $0x8c
    f1d9:	f2 e9 21 f7 ff ff    	bnd jmpq e900 <.plt>
    f1df:	90                   	nop
    f1e0:	f3 0f 1e fa          	endbr64 
    f1e4:	68 8d 00 00 00       	pushq  $0x8d
    f1e9:	f2 e9 11 f7 ff ff    	bnd jmpq e900 <.plt>
    f1ef:	90                   	nop
    f1f0:	f3 0f 1e fa          	endbr64 
    f1f4:	68 8e 00 00 00       	pushq  $0x8e
    f1f9:	f2 e9 01 f7 ff ff    	bnd jmpq e900 <.plt>
    f1ff:	90                   	nop
    f200:	f3 0f 1e fa          	endbr64 
    f204:	68 8f 00 00 00       	pushq  $0x8f
    f209:	f2 e9 f1 f6 ff ff    	bnd jmpq e900 <.plt>
    f20f:	90                   	nop
    f210:	f3 0f 1e fa          	endbr64 
    f214:	68 90 00 00 00       	pushq  $0x90
    f219:	f2 e9 e1 f6 ff ff    	bnd jmpq e900 <.plt>
    f21f:	90                   	nop
    f220:	f3 0f 1e fa          	endbr64 
    f224:	68 91 00 00 00       	pushq  $0x91
    f229:	f2 e9 d1 f6 ff ff    	bnd jmpq e900 <.plt>
    f22f:	90                   	nop
    f230:	f3 0f 1e fa          	endbr64 
    f234:	68 92 00 00 00       	pushq  $0x92
    f239:	f2 e9 c1 f6 ff ff    	bnd jmpq e900 <.plt>
    f23f:	90                   	nop
    f240:	f3 0f 1e fa          	endbr64 
    f244:	68 93 00 00 00       	pushq  $0x93
    f249:	f2 e9 b1 f6 ff ff    	bnd jmpq e900 <.plt>
    f24f:	90                   	nop
    f250:	f3 0f 1e fa          	endbr64 
    f254:	68 94 00 00 00       	pushq  $0x94
    f259:	f2 e9 a1 f6 ff ff    	bnd jmpq e900 <.plt>
    f25f:	90                   	nop
    f260:	f3 0f 1e fa          	endbr64 
    f264:	68 95 00 00 00       	pushq  $0x95
    f269:	f2 e9 91 f6 ff ff    	bnd jmpq e900 <.plt>
    f26f:	90                   	nop
    f270:	f3 0f 1e fa          	endbr64 
    f274:	68 96 00 00 00       	pushq  $0x96
    f279:	f2 e9 81 f6 ff ff    	bnd jmpq e900 <.plt>
    f27f:	90                   	nop
    f280:	f3 0f 1e fa          	endbr64 
    f284:	68 97 00 00 00       	pushq  $0x97
    f289:	f2 e9 71 f6 ff ff    	bnd jmpq e900 <.plt>
    f28f:	90                   	nop
    f290:	f3 0f 1e fa          	endbr64 
    f294:	68 98 00 00 00       	pushq  $0x98
    f299:	f2 e9 61 f6 ff ff    	bnd jmpq e900 <.plt>
    f29f:	90                   	nop
    f2a0:	f3 0f 1e fa          	endbr64 
    f2a4:	68 99 00 00 00       	pushq  $0x99
    f2a9:	f2 e9 51 f6 ff ff    	bnd jmpq e900 <.plt>
    f2af:	90                   	nop
    f2b0:	f3 0f 1e fa          	endbr64 
    f2b4:	68 9a 00 00 00       	pushq  $0x9a
    f2b9:	f2 e9 41 f6 ff ff    	bnd jmpq e900 <.plt>
    f2bf:	90                   	nop
    f2c0:	f3 0f 1e fa          	endbr64 
    f2c4:	68 9b 00 00 00       	pushq  $0x9b
    f2c9:	f2 e9 31 f6 ff ff    	bnd jmpq e900 <.plt>
    f2cf:	90                   	nop
    f2d0:	f3 0f 1e fa          	endbr64 
    f2d4:	68 9c 00 00 00       	pushq  $0x9c
    f2d9:	f2 e9 21 f6 ff ff    	bnd jmpq e900 <.plt>
    f2df:	90                   	nop
    f2e0:	f3 0f 1e fa          	endbr64 
    f2e4:	68 9d 00 00 00       	pushq  $0x9d
    f2e9:	f2 e9 11 f6 ff ff    	bnd jmpq e900 <.plt>
    f2ef:	90                   	nop
    f2f0:	f3 0f 1e fa          	endbr64 
    f2f4:	68 9e 00 00 00       	pushq  $0x9e
    f2f9:	f2 e9 01 f6 ff ff    	bnd jmpq e900 <.plt>
    f2ff:	90                   	nop
    f300:	f3 0f 1e fa          	endbr64 
    f304:	68 9f 00 00 00       	pushq  $0x9f
    f309:	f2 e9 f1 f5 ff ff    	bnd jmpq e900 <.plt>
    f30f:	90                   	nop
    f310:	f3 0f 1e fa          	endbr64 
    f314:	68 a0 00 00 00       	pushq  $0xa0
    f319:	f2 e9 e1 f5 ff ff    	bnd jmpq e900 <.plt>
    f31f:	90                   	nop
    f320:	f3 0f 1e fa          	endbr64 
    f324:	68 a1 00 00 00       	pushq  $0xa1
    f329:	f2 e9 d1 f5 ff ff    	bnd jmpq e900 <.plt>
    f32f:	90                   	nop
    f330:	f3 0f 1e fa          	endbr64 
    f334:	68 a2 00 00 00       	pushq  $0xa2
    f339:	f2 e9 c1 f5 ff ff    	bnd jmpq e900 <.plt>
    f33f:	90                   	nop
    f340:	f3 0f 1e fa          	endbr64 
    f344:	68 a3 00 00 00       	pushq  $0xa3
    f349:	f2 e9 b1 f5 ff ff    	bnd jmpq e900 <.plt>
    f34f:	90                   	nop
    f350:	f3 0f 1e fa          	endbr64 
    f354:	68 a4 00 00 00       	pushq  $0xa4
    f359:	f2 e9 a1 f5 ff ff    	bnd jmpq e900 <.plt>
    f35f:	90                   	nop
    f360:	f3 0f 1e fa          	endbr64 
    f364:	68 a5 00 00 00       	pushq  $0xa5
    f369:	f2 e9 91 f5 ff ff    	bnd jmpq e900 <.plt>
    f36f:	90                   	nop
    f370:	f3 0f 1e fa          	endbr64 
    f374:	68 a6 00 00 00       	pushq  $0xa6
    f379:	f2 e9 81 f5 ff ff    	bnd jmpq e900 <.plt>
    f37f:	90                   	nop
    f380:	f3 0f 1e fa          	endbr64 
    f384:	68 a7 00 00 00       	pushq  $0xa7
    f389:	f2 e9 71 f5 ff ff    	bnd jmpq e900 <.plt>
    f38f:	90                   	nop
    f390:	f3 0f 1e fa          	endbr64 
    f394:	68 a8 00 00 00       	pushq  $0xa8
    f399:	f2 e9 61 f5 ff ff    	bnd jmpq e900 <.plt>
    f39f:	90                   	nop
    f3a0:	f3 0f 1e fa          	endbr64 
    f3a4:	68 a9 00 00 00       	pushq  $0xa9
    f3a9:	f2 e9 51 f5 ff ff    	bnd jmpq e900 <.plt>
    f3af:	90                   	nop
    f3b0:	f3 0f 1e fa          	endbr64 
    f3b4:	68 aa 00 00 00       	pushq  $0xaa
    f3b9:	f2 e9 41 f5 ff ff    	bnd jmpq e900 <.plt>
    f3bf:	90                   	nop
    f3c0:	f3 0f 1e fa          	endbr64 
    f3c4:	68 ab 00 00 00       	pushq  $0xab
    f3c9:	f2 e9 31 f5 ff ff    	bnd jmpq e900 <.plt>
    f3cf:	90                   	nop
    f3d0:	f3 0f 1e fa          	endbr64 
    f3d4:	68 ac 00 00 00       	pushq  $0xac
    f3d9:	f2 e9 21 f5 ff ff    	bnd jmpq e900 <.plt>
    f3df:	90                   	nop
    f3e0:	f3 0f 1e fa          	endbr64 
    f3e4:	68 ad 00 00 00       	pushq  $0xad
    f3e9:	f2 e9 11 f5 ff ff    	bnd jmpq e900 <.plt>
    f3ef:	90                   	nop
    f3f0:	f3 0f 1e fa          	endbr64 
    f3f4:	68 ae 00 00 00       	pushq  $0xae
    f3f9:	f2 e9 01 f5 ff ff    	bnd jmpq e900 <.plt>
    f3ff:	90                   	nop
    f400:	f3 0f 1e fa          	endbr64 
    f404:	68 af 00 00 00       	pushq  $0xaf
    f409:	f2 e9 f1 f4 ff ff    	bnd jmpq e900 <.plt>
    f40f:	90                   	nop
    f410:	f3 0f 1e fa          	endbr64 
    f414:	68 b0 00 00 00       	pushq  $0xb0
    f419:	f2 e9 e1 f4 ff ff    	bnd jmpq e900 <.plt>
    f41f:	90                   	nop
    f420:	f3 0f 1e fa          	endbr64 
    f424:	68 b1 00 00 00       	pushq  $0xb1
    f429:	f2 e9 d1 f4 ff ff    	bnd jmpq e900 <.plt>
    f42f:	90                   	nop
    f430:	f3 0f 1e fa          	endbr64 
    f434:	68 b2 00 00 00       	pushq  $0xb2
    f439:	f2 e9 c1 f4 ff ff    	bnd jmpq e900 <.plt>
    f43f:	90                   	nop
    f440:	f3 0f 1e fa          	endbr64 
    f444:	68 b3 00 00 00       	pushq  $0xb3
    f449:	f2 e9 b1 f4 ff ff    	bnd jmpq e900 <.plt>
    f44f:	90                   	nop
    f450:	f3 0f 1e fa          	endbr64 
    f454:	68 b4 00 00 00       	pushq  $0xb4
    f459:	f2 e9 a1 f4 ff ff    	bnd jmpq e900 <.plt>
    f45f:	90                   	nop
    f460:	f3 0f 1e fa          	endbr64 
    f464:	68 b5 00 00 00       	pushq  $0xb5
    f469:	f2 e9 91 f4 ff ff    	bnd jmpq e900 <.plt>
    f46f:	90                   	nop
    f470:	f3 0f 1e fa          	endbr64 
    f474:	68 b6 00 00 00       	pushq  $0xb6
    f479:	f2 e9 81 f4 ff ff    	bnd jmpq e900 <.plt>
    f47f:	90                   	nop
    f480:	f3 0f 1e fa          	endbr64 
    f484:	68 b7 00 00 00       	pushq  $0xb7
    f489:	f2 e9 71 f4 ff ff    	bnd jmpq e900 <.plt>
    f48f:	90                   	nop
    f490:	f3 0f 1e fa          	endbr64 
    f494:	68 b8 00 00 00       	pushq  $0xb8
    f499:	f2 e9 61 f4 ff ff    	bnd jmpq e900 <.plt>
    f49f:	90                   	nop
    f4a0:	f3 0f 1e fa          	endbr64 
    f4a4:	68 b9 00 00 00       	pushq  $0xb9
    f4a9:	f2 e9 51 f4 ff ff    	bnd jmpq e900 <.plt>
    f4af:	90                   	nop
    f4b0:	f3 0f 1e fa          	endbr64 
    f4b4:	68 ba 00 00 00       	pushq  $0xba
    f4b9:	f2 e9 41 f4 ff ff    	bnd jmpq e900 <.plt>
    f4bf:	90                   	nop
    f4c0:	f3 0f 1e fa          	endbr64 
    f4c4:	68 bb 00 00 00       	pushq  $0xbb
    f4c9:	f2 e9 31 f4 ff ff    	bnd jmpq e900 <.plt>
    f4cf:	90                   	nop
    f4d0:	f3 0f 1e fa          	endbr64 
    f4d4:	68 bc 00 00 00       	pushq  $0xbc
    f4d9:	f2 e9 21 f4 ff ff    	bnd jmpq e900 <.plt>
    f4df:	90                   	nop
    f4e0:	f3 0f 1e fa          	endbr64 
    f4e4:	68 bd 00 00 00       	pushq  $0xbd
    f4e9:	f2 e9 11 f4 ff ff    	bnd jmpq e900 <.plt>
    f4ef:	90                   	nop
    f4f0:	f3 0f 1e fa          	endbr64 
    f4f4:	68 be 00 00 00       	pushq  $0xbe
    f4f9:	f2 e9 01 f4 ff ff    	bnd jmpq e900 <.plt>
    f4ff:	90                   	nop
    f500:	f3 0f 1e fa          	endbr64 
    f504:	68 bf 00 00 00       	pushq  $0xbf
    f509:	f2 e9 f1 f3 ff ff    	bnd jmpq e900 <.plt>
    f50f:	90                   	nop
    f510:	f3 0f 1e fa          	endbr64 
    f514:	68 c0 00 00 00       	pushq  $0xc0
    f519:	f2 e9 e1 f3 ff ff    	bnd jmpq e900 <.plt>
    f51f:	90                   	nop
    f520:	f3 0f 1e fa          	endbr64 
    f524:	68 c1 00 00 00       	pushq  $0xc1
    f529:	f2 e9 d1 f3 ff ff    	bnd jmpq e900 <.plt>
    f52f:	90                   	nop
    f530:	f3 0f 1e fa          	endbr64 
    f534:	68 c2 00 00 00       	pushq  $0xc2
    f539:	f2 e9 c1 f3 ff ff    	bnd jmpq e900 <.plt>
    f53f:	90                   	nop
    f540:	f3 0f 1e fa          	endbr64 
    f544:	68 c3 00 00 00       	pushq  $0xc3
    f549:	f2 e9 b1 f3 ff ff    	bnd jmpq e900 <.plt>
    f54f:	90                   	nop
    f550:	f3 0f 1e fa          	endbr64 
    f554:	68 c4 00 00 00       	pushq  $0xc4
    f559:	f2 e9 a1 f3 ff ff    	bnd jmpq e900 <.plt>
    f55f:	90                   	nop
    f560:	f3 0f 1e fa          	endbr64 
    f564:	68 c5 00 00 00       	pushq  $0xc5
    f569:	f2 e9 91 f3 ff ff    	bnd jmpq e900 <.plt>
    f56f:	90                   	nop
    f570:	f3 0f 1e fa          	endbr64 
    f574:	68 c6 00 00 00       	pushq  $0xc6
    f579:	f2 e9 81 f3 ff ff    	bnd jmpq e900 <.plt>
    f57f:	90                   	nop
    f580:	f3 0f 1e fa          	endbr64 
    f584:	68 c7 00 00 00       	pushq  $0xc7
    f589:	f2 e9 71 f3 ff ff    	bnd jmpq e900 <.plt>
    f58f:	90                   	nop
    f590:	f3 0f 1e fa          	endbr64 
    f594:	68 c8 00 00 00       	pushq  $0xc8
    f599:	f2 e9 61 f3 ff ff    	bnd jmpq e900 <.plt>
    f59f:	90                   	nop
    f5a0:	f3 0f 1e fa          	endbr64 
    f5a4:	68 c9 00 00 00       	pushq  $0xc9
    f5a9:	f2 e9 51 f3 ff ff    	bnd jmpq e900 <.plt>
    f5af:	90                   	nop
    f5b0:	f3 0f 1e fa          	endbr64 
    f5b4:	68 ca 00 00 00       	pushq  $0xca
    f5b9:	f2 e9 41 f3 ff ff    	bnd jmpq e900 <.plt>
    f5bf:	90                   	nop
    f5c0:	f3 0f 1e fa          	endbr64 
    f5c4:	68 cb 00 00 00       	pushq  $0xcb
    f5c9:	f2 e9 31 f3 ff ff    	bnd jmpq e900 <.plt>
    f5cf:	90                   	nop
    f5d0:	f3 0f 1e fa          	endbr64 
    f5d4:	68 cc 00 00 00       	pushq  $0xcc
    f5d9:	f2 e9 21 f3 ff ff    	bnd jmpq e900 <.plt>
    f5df:	90                   	nop
    f5e0:	f3 0f 1e fa          	endbr64 
    f5e4:	68 cd 00 00 00       	pushq  $0xcd
    f5e9:	f2 e9 11 f3 ff ff    	bnd jmpq e900 <.plt>
    f5ef:	90                   	nop
    f5f0:	f3 0f 1e fa          	endbr64 
    f5f4:	68 ce 00 00 00       	pushq  $0xce
    f5f9:	f2 e9 01 f3 ff ff    	bnd jmpq e900 <.plt>
    f5ff:	90                   	nop
    f600:	f3 0f 1e fa          	endbr64 
    f604:	68 cf 00 00 00       	pushq  $0xcf
    f609:	f2 e9 f1 f2 ff ff    	bnd jmpq e900 <.plt>
    f60f:	90                   	nop
    f610:	f3 0f 1e fa          	endbr64 
    f614:	68 d0 00 00 00       	pushq  $0xd0
    f619:	f2 e9 e1 f2 ff ff    	bnd jmpq e900 <.plt>
    f61f:	90                   	nop
    f620:	f3 0f 1e fa          	endbr64 
    f624:	68 d1 00 00 00       	pushq  $0xd1
    f629:	f2 e9 d1 f2 ff ff    	bnd jmpq e900 <.plt>
    f62f:	90                   	nop
    f630:	f3 0f 1e fa          	endbr64 
    f634:	68 d2 00 00 00       	pushq  $0xd2
    f639:	f2 e9 c1 f2 ff ff    	bnd jmpq e900 <.plt>
    f63f:	90                   	nop
    f640:	f3 0f 1e fa          	endbr64 
    f644:	68 d3 00 00 00       	pushq  $0xd3
    f649:	f2 e9 b1 f2 ff ff    	bnd jmpq e900 <.plt>
    f64f:	90                   	nop
    f650:	f3 0f 1e fa          	endbr64 
    f654:	68 d4 00 00 00       	pushq  $0xd4
    f659:	f2 e9 a1 f2 ff ff    	bnd jmpq e900 <.plt>
    f65f:	90                   	nop
    f660:	f3 0f 1e fa          	endbr64 
    f664:	68 d5 00 00 00       	pushq  $0xd5
    f669:	f2 e9 91 f2 ff ff    	bnd jmpq e900 <.plt>
    f66f:	90                   	nop
    f670:	f3 0f 1e fa          	endbr64 
    f674:	68 d6 00 00 00       	pushq  $0xd6
    f679:	f2 e9 81 f2 ff ff    	bnd jmpq e900 <.plt>
    f67f:	90                   	nop
    f680:	f3 0f 1e fa          	endbr64 
    f684:	68 d7 00 00 00       	pushq  $0xd7
    f689:	f2 e9 71 f2 ff ff    	bnd jmpq e900 <.plt>
    f68f:	90                   	nop
    f690:	f3 0f 1e fa          	endbr64 
    f694:	68 d8 00 00 00       	pushq  $0xd8
    f699:	f2 e9 61 f2 ff ff    	bnd jmpq e900 <.plt>
    f69f:	90                   	nop
    f6a0:	f3 0f 1e fa          	endbr64 
    f6a4:	68 d9 00 00 00       	pushq  $0xd9
    f6a9:	f2 e9 51 f2 ff ff    	bnd jmpq e900 <.plt>
    f6af:	90                   	nop
    f6b0:	f3 0f 1e fa          	endbr64 
    f6b4:	68 da 00 00 00       	pushq  $0xda
    f6b9:	f2 e9 41 f2 ff ff    	bnd jmpq e900 <.plt>
    f6bf:	90                   	nop
    f6c0:	f3 0f 1e fa          	endbr64 
    f6c4:	68 db 00 00 00       	pushq  $0xdb
    f6c9:	f2 e9 31 f2 ff ff    	bnd jmpq e900 <.plt>
    f6cf:	90                   	nop
    f6d0:	f3 0f 1e fa          	endbr64 
    f6d4:	68 dc 00 00 00       	pushq  $0xdc
    f6d9:	f2 e9 21 f2 ff ff    	bnd jmpq e900 <.plt>
    f6df:	90                   	nop
    f6e0:	f3 0f 1e fa          	endbr64 
    f6e4:	68 dd 00 00 00       	pushq  $0xdd
    f6e9:	f2 e9 11 f2 ff ff    	bnd jmpq e900 <.plt>
    f6ef:	90                   	nop
    f6f0:	f3 0f 1e fa          	endbr64 
    f6f4:	68 de 00 00 00       	pushq  $0xde
    f6f9:	f2 e9 01 f2 ff ff    	bnd jmpq e900 <.plt>
    f6ff:	90                   	nop
    f700:	f3 0f 1e fa          	endbr64 
    f704:	68 df 00 00 00       	pushq  $0xdf
    f709:	f2 e9 f1 f1 ff ff    	bnd jmpq e900 <.plt>
    f70f:	90                   	nop
    f710:	f3 0f 1e fa          	endbr64 
    f714:	68 e0 00 00 00       	pushq  $0xe0
    f719:	f2 e9 e1 f1 ff ff    	bnd jmpq e900 <.plt>
    f71f:	90                   	nop
    f720:	f3 0f 1e fa          	endbr64 
    f724:	68 e1 00 00 00       	pushq  $0xe1
    f729:	f2 e9 d1 f1 ff ff    	bnd jmpq e900 <.plt>
    f72f:	90                   	nop
    f730:	f3 0f 1e fa          	endbr64 
    f734:	68 e2 00 00 00       	pushq  $0xe2
    f739:	f2 e9 c1 f1 ff ff    	bnd jmpq e900 <.plt>
    f73f:	90                   	nop
    f740:	f3 0f 1e fa          	endbr64 
    f744:	68 e3 00 00 00       	pushq  $0xe3
    f749:	f2 e9 b1 f1 ff ff    	bnd jmpq e900 <.plt>
    f74f:	90                   	nop
    f750:	f3 0f 1e fa          	endbr64 
    f754:	68 e4 00 00 00       	pushq  $0xe4
    f759:	f2 e9 a1 f1 ff ff    	bnd jmpq e900 <.plt>
    f75f:	90                   	nop
    f760:	f3 0f 1e fa          	endbr64 
    f764:	68 e5 00 00 00       	pushq  $0xe5
    f769:	f2 e9 91 f1 ff ff    	bnd jmpq e900 <.plt>
    f76f:	90                   	nop
    f770:	f3 0f 1e fa          	endbr64 
    f774:	68 e6 00 00 00       	pushq  $0xe6
    f779:	f2 e9 81 f1 ff ff    	bnd jmpq e900 <.plt>
    f77f:	90                   	nop
    f780:	f3 0f 1e fa          	endbr64 
    f784:	68 e7 00 00 00       	pushq  $0xe7
    f789:	f2 e9 71 f1 ff ff    	bnd jmpq e900 <.plt>
    f78f:	90                   	nop
    f790:	f3 0f 1e fa          	endbr64 
    f794:	68 e8 00 00 00       	pushq  $0xe8
    f799:	f2 e9 61 f1 ff ff    	bnd jmpq e900 <.plt>
    f79f:	90                   	nop
    f7a0:	f3 0f 1e fa          	endbr64 
    f7a4:	68 e9 00 00 00       	pushq  $0xe9
    f7a9:	f2 e9 51 f1 ff ff    	bnd jmpq e900 <.plt>
    f7af:	90                   	nop
    f7b0:	f3 0f 1e fa          	endbr64 
    f7b4:	68 ea 00 00 00       	pushq  $0xea
    f7b9:	f2 e9 41 f1 ff ff    	bnd jmpq e900 <.plt>
    f7bf:	90                   	nop
    f7c0:	f3 0f 1e fa          	endbr64 
    f7c4:	68 eb 00 00 00       	pushq  $0xeb
    f7c9:	f2 e9 31 f1 ff ff    	bnd jmpq e900 <.plt>
    f7cf:	90                   	nop
    f7d0:	f3 0f 1e fa          	endbr64 
    f7d4:	68 ec 00 00 00       	pushq  $0xec
    f7d9:	f2 e9 21 f1 ff ff    	bnd jmpq e900 <.plt>
    f7df:	90                   	nop
    f7e0:	f3 0f 1e fa          	endbr64 
    f7e4:	68 ed 00 00 00       	pushq  $0xed
    f7e9:	f2 e9 11 f1 ff ff    	bnd jmpq e900 <.plt>
    f7ef:	90                   	nop
    f7f0:	f3 0f 1e fa          	endbr64 
    f7f4:	68 ee 00 00 00       	pushq  $0xee
    f7f9:	f2 e9 01 f1 ff ff    	bnd jmpq e900 <.plt>
    f7ff:	90                   	nop
    f800:	f3 0f 1e fa          	endbr64 
    f804:	68 ef 00 00 00       	pushq  $0xef
    f809:	f2 e9 f1 f0 ff ff    	bnd jmpq e900 <.plt>
    f80f:	90                   	nop
    f810:	f3 0f 1e fa          	endbr64 
    f814:	68 f0 00 00 00       	pushq  $0xf0
    f819:	f2 e9 e1 f0 ff ff    	bnd jmpq e900 <.plt>
    f81f:	90                   	nop
    f820:	f3 0f 1e fa          	endbr64 
    f824:	68 f1 00 00 00       	pushq  $0xf1
    f829:	f2 e9 d1 f0 ff ff    	bnd jmpq e900 <.plt>
    f82f:	90                   	nop
    f830:	f3 0f 1e fa          	endbr64 
    f834:	68 f2 00 00 00       	pushq  $0xf2
    f839:	f2 e9 c1 f0 ff ff    	bnd jmpq e900 <.plt>
    f83f:	90                   	nop
    f840:	f3 0f 1e fa          	endbr64 
    f844:	68 f3 00 00 00       	pushq  $0xf3
    f849:	f2 e9 b1 f0 ff ff    	bnd jmpq e900 <.plt>
    f84f:	90                   	nop
    f850:	f3 0f 1e fa          	endbr64 
    f854:	68 f4 00 00 00       	pushq  $0xf4
    f859:	f2 e9 a1 f0 ff ff    	bnd jmpq e900 <.plt>
    f85f:	90                   	nop
    f860:	f3 0f 1e fa          	endbr64 
    f864:	68 f5 00 00 00       	pushq  $0xf5
    f869:	f2 e9 91 f0 ff ff    	bnd jmpq e900 <.plt>
    f86f:	90                   	nop
    f870:	f3 0f 1e fa          	endbr64 
    f874:	68 f6 00 00 00       	pushq  $0xf6
    f879:	f2 e9 81 f0 ff ff    	bnd jmpq e900 <.plt>
    f87f:	90                   	nop
    f880:	f3 0f 1e fa          	endbr64 
    f884:	68 f7 00 00 00       	pushq  $0xf7
    f889:	f2 e9 71 f0 ff ff    	bnd jmpq e900 <.plt>
    f88f:	90                   	nop
    f890:	f3 0f 1e fa          	endbr64 
    f894:	68 f8 00 00 00       	pushq  $0xf8
    f899:	f2 e9 61 f0 ff ff    	bnd jmpq e900 <.plt>
    f89f:	90                   	nop
    f8a0:	f3 0f 1e fa          	endbr64 
    f8a4:	68 f9 00 00 00       	pushq  $0xf9
    f8a9:	f2 e9 51 f0 ff ff    	bnd jmpq e900 <.plt>
    f8af:	90                   	nop
    f8b0:	f3 0f 1e fa          	endbr64 
    f8b4:	68 fa 00 00 00       	pushq  $0xfa
    f8b9:	f2 e9 41 f0 ff ff    	bnd jmpq e900 <.plt>
    f8bf:	90                   	nop
    f8c0:	f3 0f 1e fa          	endbr64 
    f8c4:	68 fb 00 00 00       	pushq  $0xfb
    f8c9:	f2 e9 31 f0 ff ff    	bnd jmpq e900 <.plt>
    f8cf:	90                   	nop
    f8d0:	f3 0f 1e fa          	endbr64 
    f8d4:	68 fc 00 00 00       	pushq  $0xfc
    f8d9:	f2 e9 21 f0 ff ff    	bnd jmpq e900 <.plt>
    f8df:	90                   	nop
    f8e0:	f3 0f 1e fa          	endbr64 
    f8e4:	68 fd 00 00 00       	pushq  $0xfd
    f8e9:	f2 e9 11 f0 ff ff    	bnd jmpq e900 <.plt>
    f8ef:	90                   	nop
    f8f0:	f3 0f 1e fa          	endbr64 
    f8f4:	68 fe 00 00 00       	pushq  $0xfe
    f8f9:	f2 e9 01 f0 ff ff    	bnd jmpq e900 <.plt>
    f8ff:	90                   	nop
    f900:	f3 0f 1e fa          	endbr64 
    f904:	68 ff 00 00 00       	pushq  $0xff
    f909:	f2 e9 f1 ef ff ff    	bnd jmpq e900 <.plt>
    f90f:	90                   	nop
    f910:	f3 0f 1e fa          	endbr64 
    f914:	68 00 01 00 00       	pushq  $0x100
    f919:	f2 e9 e1 ef ff ff    	bnd jmpq e900 <.plt>
    f91f:	90                   	nop
    f920:	f3 0f 1e fa          	endbr64 
    f924:	68 01 01 00 00       	pushq  $0x101
    f929:	f2 e9 d1 ef ff ff    	bnd jmpq e900 <.plt>
    f92f:	90                   	nop
    f930:	f3 0f 1e fa          	endbr64 
    f934:	68 02 01 00 00       	pushq  $0x102
    f939:	f2 e9 c1 ef ff ff    	bnd jmpq e900 <.plt>
    f93f:	90                   	nop
    f940:	f3 0f 1e fa          	endbr64 
    f944:	68 03 01 00 00       	pushq  $0x103
    f949:	f2 e9 b1 ef ff ff    	bnd jmpq e900 <.plt>
    f94f:	90                   	nop
    f950:	f3 0f 1e fa          	endbr64 
    f954:	68 04 01 00 00       	pushq  $0x104
    f959:	f2 e9 a1 ef ff ff    	bnd jmpq e900 <.plt>
    f95f:	90                   	nop
    f960:	f3 0f 1e fa          	endbr64 
    f964:	68 05 01 00 00       	pushq  $0x105
    f969:	f2 e9 91 ef ff ff    	bnd jmpq e900 <.plt>
    f96f:	90                   	nop
    f970:	f3 0f 1e fa          	endbr64 
    f974:	68 06 01 00 00       	pushq  $0x106
    f979:	f2 e9 81 ef ff ff    	bnd jmpq e900 <.plt>
    f97f:	90                   	nop
    f980:	f3 0f 1e fa          	endbr64 
    f984:	68 07 01 00 00       	pushq  $0x107
    f989:	f2 e9 71 ef ff ff    	bnd jmpq e900 <.plt>
    f98f:	90                   	nop
    f990:	f3 0f 1e fa          	endbr64 
    f994:	68 08 01 00 00       	pushq  $0x108
    f999:	f2 e9 61 ef ff ff    	bnd jmpq e900 <.plt>
    f99f:	90                   	nop
    f9a0:	f3 0f 1e fa          	endbr64 
    f9a4:	68 09 01 00 00       	pushq  $0x109
    f9a9:	f2 e9 51 ef ff ff    	bnd jmpq e900 <.plt>
    f9af:	90                   	nop
    f9b0:	f3 0f 1e fa          	endbr64 
    f9b4:	68 0a 01 00 00       	pushq  $0x10a
    f9b9:	f2 e9 41 ef ff ff    	bnd jmpq e900 <.plt>
    f9bf:	90                   	nop
    f9c0:	f3 0f 1e fa          	endbr64 
    f9c4:	68 0b 01 00 00       	pushq  $0x10b
    f9c9:	f2 e9 31 ef ff ff    	bnd jmpq e900 <.plt>
    f9cf:	90                   	nop
    f9d0:	f3 0f 1e fa          	endbr64 
    f9d4:	68 0c 01 00 00       	pushq  $0x10c
    f9d9:	f2 e9 21 ef ff ff    	bnd jmpq e900 <.plt>
    f9df:	90                   	nop
    f9e0:	f3 0f 1e fa          	endbr64 
    f9e4:	68 0d 01 00 00       	pushq  $0x10d
    f9e9:	f2 e9 11 ef ff ff    	bnd jmpq e900 <.plt>
    f9ef:	90                   	nop
    f9f0:	f3 0f 1e fa          	endbr64 
    f9f4:	68 0e 01 00 00       	pushq  $0x10e
    f9f9:	f2 e9 01 ef ff ff    	bnd jmpq e900 <.plt>
    f9ff:	90                   	nop
    fa00:	f3 0f 1e fa          	endbr64 
    fa04:	68 0f 01 00 00       	pushq  $0x10f
    fa09:	f2 e9 f1 ee ff ff    	bnd jmpq e900 <.plt>
    fa0f:	90                   	nop
    fa10:	f3 0f 1e fa          	endbr64 
    fa14:	68 10 01 00 00       	pushq  $0x110
    fa19:	f2 e9 e1 ee ff ff    	bnd jmpq e900 <.plt>
    fa1f:	90                   	nop
    fa20:	f3 0f 1e fa          	endbr64 
    fa24:	68 11 01 00 00       	pushq  $0x111
    fa29:	f2 e9 d1 ee ff ff    	bnd jmpq e900 <.plt>
    fa2f:	90                   	nop
    fa30:	f3 0f 1e fa          	endbr64 
    fa34:	68 12 01 00 00       	pushq  $0x112
    fa39:	f2 e9 c1 ee ff ff    	bnd jmpq e900 <.plt>
    fa3f:	90                   	nop

Disassembly of section .plt.sec:

000000000000fa40 <__ctype_toupper_loc@plt>:
    fa40:	f3 0f 1e fa          	endbr64 
    fa44:	f2 ff 25 bd 2c 24 00 	bnd jmpq *0x242cbd(%rip)        # 252708 <__ctype_toupper_loc@GLIBC_2.3>
    fa4b:	0f 1f 44 00 00       	nopl   0x0(%rax,%rax,1)

000000000000fa50 <getenv@plt>:
    fa50:	f3 0f 1e fa          	endbr64 
    fa54:	f2 ff 25 b5 2c 24 00 	bnd jmpq *0x242cb5(%rip)        # 252710 <getenv@GLIBC_2.2.5>
    fa5b:	0f 1f 44 00 00       	nopl   0x0(%rax,%rax,1)

000000000000fa60 <json_true@plt>:
    fa60:	f3 0f 1e fa          	endbr64 
    fa64:	f2 ff 25 ad 2c 24 00 	bnd jmpq *0x242cad(%rip)        # 252718 <json_true@libjansson.so.4>
    fa6b:	0f 1f 44 00 00       	nopl   0x0(%rax,%rax,1)

000000000000fa70 <flux_msg_route_delete_last@plt>:
    fa70:	f3 0f 1e fa          	endbr64 
    fa74:	f2 ff 25 a5 2c 24 00 	bnd jmpq *0x242ca5(%rip)        # 252720 <flux_msg_route_delete_last@Base>
    fa7b:	0f 1f 44 00 00       	nopl   0x0(%rax,%rax,1)

000000000000fa80 <flux_msg_route_push@plt>:
    fa80:	f3 0f 1e fa          	endbr64 
    fa84:	f2 ff 25 9d 2c 24 00 	bnd jmpq *0x242c9d(%rip)        # 252728 <flux_msg_route_push@Base>
    fa8b:	0f 1f 44 00 00       	nopl   0x0(%rax,%rax,1)

000000000000fa90 <sigprocmask@plt>:
    fa90:	f3 0f 1e fa          	endbr64 
    fa94:	f2 ff 25 95 2c 24 00 	bnd jmpq *0x242c95(%rip)        # 252730 <sigprocmask@GLIBC_2.2.5>
    fa9b:	0f 1f 44 00 00       	nopl   0x0(%rax,%rax,1)

000000000000faa0 <__snprintf_chk@plt>:
    faa0:	f3 0f 1e fa          	endbr64 
    faa4:	f2 ff 25 8d 2c 24 00 	bnd jmpq *0x242c8d(%rip)        # 252738 <__snprintf_chk@GLIBC_2.3.4>
    faab:	0f 1f 44 00 00       	nopl   0x0(%rax,%rax,1)

000000000000fab0 <free@plt>:
    fab0:	f3 0f 1e fa          	endbr64 
    fab4:	f2 ff 25 85 2c 24 00 	bnd jmpq *0x242c85(%rip)        # 252740 <free@GLIBC_2.2.5>
    fabb:	0f 1f 44 00 00       	nopl   0x0(%rax,%rax,1)

000000000000fac0 <strcasecmp@plt>:
    fac0:	f3 0f 1e fa          	endbr64 
    fac4:	f2 ff 25 7d 2c 24 00 	bnd jmpq *0x242c7d(%rip)        # 252748 <strcasecmp@GLIBC_2.2.5>
    facb:	0f 1f 44 00 00       	nopl   0x0(%rax,%rax,1)

000000000000fad0 <flux_watcher_start@plt>:
    fad0:	f3 0f 1e fa          	endbr64 
    fad4:	f2 ff 25 75 2c 24 00 	bnd jmpq *0x242c75(%rip)        # 252750 <flux_watcher_start@Base>
    fadb:	0f 1f 44 00 00       	nopl   0x0(%rax,%rax,1)

000000000000fae0 <flux_send@plt>:
    fae0:	f3 0f 1e fa          	endbr64 
    fae4:	f2 ff 25 6d 2c 24 00 	bnd jmpq *0x242c6d(%rip)        # 252758 <flux_send@Base>
    faeb:	0f 1f 44 00 00       	nopl   0x0(%rax,%rax,1)

000000000000faf0 <abort@plt>:
    faf0:	f3 0f 1e fa          	endbr64 
    faf4:	f2 ff 25 65 2c 24 00 	bnd jmpq *0x242c65(%rip)        # 252760 <abort@GLIBC_2.2.5>
    fafb:	0f 1f 44 00 00       	nopl   0x0(%rax,%rax,1)

000000000000fb00 <flux_future_wait_for@plt>:
    fb00:	f3 0f 1e fa          	endbr64 
    fb04:	f2 ff 25 5d 2c 24 00 	bnd jmpq *0x242c5d(%rip)        # 252768 <flux_future_wait_for@Base>
    fb0b:	0f 1f 44 00 00       	nopl   0x0(%rax,%rax,1)

000000000000fb10 <__errno_location@plt>:
    fb10:	f3 0f 1e fa          	endbr64 
    fb14:	f2 ff 25 55 2c 24 00 	bnd jmpq *0x242c55(%rip)        # 252770 <__errno_location@GLIBC_2.2.5>
    fb1b:	0f 1f 44 00 00       	nopl   0x0(%rax,%rax,1)

000000000000fb20 <flux_handle_create@plt>:
    fb20:	f3 0f 1e fa          	endbr64 
    fb24:	f2 ff 25 4d 2c 24 00 	bnd jmpq *0x242c4d(%rip)        # 252778 <flux_handle_create@Base>
    fb2b:	0f 1f 44 00 00       	nopl   0x0(%rax,%rax,1)

000000000000fb30 <unlink@plt>:
    fb30:	f3 0f 1e fa          	endbr64 
    fb34:	f2 ff 25 45 2c 24 00 	bnd jmpq *0x242c45(%rip)        # 252780 <unlink@GLIBC_2.2.5>
    fb3b:	0f 1f 44 00 00       	nopl   0x0(%rax,%rax,1)

000000000000fb40 <uuid_unparse@plt>:
    fb40:	f3 0f 1e fa          	endbr64 
    fb44:	f2 ff 25 3d 2c 24 00 	bnd jmpq *0x242c3d(%rip)        # 252788 <uuid_unparse@UUID_1.0>
    fb4b:	0f 1f 44 00 00       	nopl   0x0(%rax,%rax,1)

000000000000fb50 <open_memstream@plt>:
    fb50:	f3 0f 1e fa          	endbr64 
    fb54:	f2 ff 25 35 2c 24 00 	bnd jmpq *0x242c35(%rip)        # 252790 <open_memstream@GLIBC_2.2.5>
    fb5b:	0f 1f 44 00 00       	nopl   0x0(%rax,%rax,1)

000000000000fb60 <strncpy@plt>:
    fb60:	f3 0f 1e fa          	endbr64 
    fb64:	f2 ff 25 2d 2c 24 00 	bnd jmpq *0x242c2d(%rip)        # 252798 <strncpy@GLIBC_2.2.5>
    fb6b:	0f 1f 44 00 00       	nopl   0x0(%rax,%rax,1)

000000000000fb70 <flux_rpc_get_raw@plt>:
    fb70:	f3 0f 1e fa          	endbr64 
    fb74:	f2 ff 25 25 2c 24 00 	bnd jmpq *0x242c25(%rip)        # 2527a0 <flux_rpc_get_raw@Base>
    fb7b:	0f 1f 44 00 00       	nopl   0x0(%rax,%rax,1)

000000000000fb80 <remove@plt>:
    fb80:	f3 0f 1e fa          	endbr64 
    fb84:	f2 ff 25 1d 2c 24 00 	bnd jmpq *0x242c1d(%rip)        # 2527a8 <remove@GLIBC_2.2.5>
    fb8b:	0f 1f 44 00 00       	nopl   0x0(%rax,%rax,1)

000000000000fb90 <argz_create_sep@plt>:
    fb90:	f3 0f 1e fa          	endbr64 
    fb94:	f2 ff 25 15 2c 24 00 	bnd jmpq *0x242c15(%rip)        # 2527b0 <argz_create_sep@GLIBC_2.2.5>
    fb9b:	0f 1f 44 00 00       	nopl   0x0(%rax,%rax,1)

000000000000fba0 <flux_future_create@plt>:
    fba0:	f3 0f 1e fa          	endbr64 
    fba4:	f2 ff 25 0d 2c 24 00 	bnd jmpq *0x242c0d(%rip)        # 2527b8 <flux_future_create@Base>
    fbab:	0f 1f 44 00 00       	nopl   0x0(%rax,%rax,1)

000000000000fbb0 <strncmp@plt>:
    fbb0:	f3 0f 1e fa          	endbr64 
    fbb4:	f2 ff 25 05 2c 24 00 	bnd jmpq *0x242c05(%rip)        # 2527c0 <strncmp@GLIBC_2.2.5>
    fbbb:	0f 1f 44 00 00       	nopl   0x0(%rax,%rax,1)

000000000000fbc0 <localtime_r@plt>:
    fbc0:	f3 0f 1e fa          	endbr64 
    fbc4:	f2 ff 25 fd 2b 24 00 	bnd jmpq *0x242bfd(%rip)        # 2527c8 <localtime_r@GLIBC_2.2.5>
    fbcb:	0f 1f 44 00 00       	nopl   0x0(%rax,%rax,1)

000000000000fbd0 <json_real@plt>:
    fbd0:	f3 0f 1e fa          	endbr64 
    fbd4:	f2 ff 25 f5 2b 24 00 	bnd jmpq *0x242bf5(%rip)        # 2527d0 <json_real@libjansson.so.4>
    fbdb:	0f 1f 44 00 00       	nopl   0x0(%rax,%rax,1)

000000000000fbe0 <flux_log_error@plt>:
    fbe0:	f3 0f 1e fa          	endbr64 
    fbe4:	f2 ff 25 ed 2b 24 00 	bnd jmpq *0x242bed(%rip)        # 2527d8 <flux_log_error@Base>
    fbeb:	0f 1f 44 00 00       	nopl   0x0(%rax,%rax,1)

000000000000fbf0 <strcpy@plt>:
    fbf0:	f3 0f 1e fa          	endbr64 
    fbf4:	f2 ff 25 e5 2b 24 00 	bnd jmpq *0x242be5(%rip)        # 2527e0 <strcpy@GLIBC_2.2.5>
    fbfb:	0f 1f 44 00 00       	nopl   0x0(%rax,%rax,1)

000000000000fc00 <json_object_del@plt>:
    fc00:	f3 0f 1e fa          	endbr64 
    fc04:	f2 ff 25 dd 2b 24 00 	bnd jmpq *0x242bdd(%rip)        # 2527e8 <json_object_del@libjansson.so.4>
    fc0b:	0f 1f 44 00 00       	nopl   0x0(%rax,%rax,1)

000000000000fc10 <json_object_iter@plt>:
    fc10:	f3 0f 1e fa          	endbr64 
    fc14:	f2 ff 25 d5 2b 24 00 	bnd jmpq *0x242bd5(%rip)        # 2527f0 <json_object_iter@libjansson.so.4>
    fc1b:	0f 1f 44 00 00       	nopl   0x0(%rax,%rax,1)

000000000000fc20 <flux_future_has_error@plt>:
    fc20:	f3 0f 1e fa          	endbr64 
    fc24:	f2 ff 25 cd 2b 24 00 	bnd jmpq *0x242bcd(%rip)        # 2527f8 <flux_future_has_error@Base>
    fc2b:	0f 1f 44 00 00       	nopl   0x0(%rax,%rax,1)

000000000000fc30 <unlinkat@plt>:
    fc30:	f3 0f 1e fa          	endbr64 
    fc34:	f2 ff 25 c5 2b 24 00 	bnd jmpq *0x242bc5(%rip)        # 252800 <unlinkat@GLIBC_2.4>
    fc3b:	0f 1f 44 00 00       	nopl   0x0(%rax,%rax,1)

000000000000fc40 <ferror@plt>:
    fc40:	f3 0f 1e fa          	endbr64 
    fc44:	f2 ff 25 bd 2b 24 00 	bnd jmpq *0x242bbd(%rip)        # 252808 <ferror@GLIBC_2.2.5>
    fc4b:	0f 1f 44 00 00       	nopl   0x0(%rax,%rax,1)

000000000000fc50 <flux_msg_is_noresponse@plt>:
    fc50:	f3 0f 1e fa          	endbr64 
    fc54:	f2 ff 25 b5 2b 24 00 	bnd jmpq *0x242bb5(%rip)        # 252810 <flux_msg_is_noresponse@Base>
    fc5b:	0f 1f 44 00 00       	nopl   0x0(%rax,%rax,1)

000000000000fc60 <qsort@plt>:
    fc60:	f3 0f 1e fa          	endbr64 
    fc64:	f2 ff 25 ad 2b 24 00 	bnd jmpq *0x242bad(%rip)        # 252818 <qsort@GLIBC_2.2.5>
    fc6b:	0f 1f 44 00 00       	nopl   0x0(%rax,%rax,1)

000000000000fc70 <sigaction@plt>:
    fc70:	f3 0f 1e fa          	endbr64 
    fc74:	f2 ff 25 a5 2b 24 00 	bnd jmpq *0x242ba5(%rip)        # 252820 <sigaction@GLIBC_2.2.5>
    fc7b:	0f 1f 44 00 00       	nopl   0x0(%rax,%rax,1)

000000000000fc80 <fread@plt>:
    fc80:	f3 0f 1e fa          	endbr64 
    fc84:	f2 ff 25 9d 2b 24 00 	bnd jmpq *0x242b9d(%rip)        # 252828 <fread@GLIBC_2.2.5>
    fc8b:	0f 1f 44 00 00       	nopl   0x0(%rax,%rax,1)

000000000000fc90 <strtod@plt>:
    fc90:	f3 0f 1e fa          	endbr64 
    fc94:	f2 ff 25 95 2b 24 00 	bnd jmpq *0x242b95(%rip)        # 252830 <strtod@GLIBC_2.2.5>
    fc9b:	0f 1f 44 00 00       	nopl   0x0(%rax,%rax,1)

000000000000fca0 <flux_rpc_pack@plt>:
    fca0:	f3 0f 1e fa          	endbr64 
    fca4:	f2 ff 25 8d 2b 24 00 	bnd jmpq *0x242b8d(%rip)        # 252838 <flux_rpc_pack@Base>
    fcab:	0f 1f 44 00 00       	nopl   0x0(%rax,%rax,1)

000000000000fcb0 <readlink@plt>:
    fcb0:	f3 0f 1e fa          	endbr64 
    fcb4:	f2 ff 25 85 2b 24 00 	bnd jmpq *0x242b85(%rip)        # 252840 <readlink@GLIBC_2.2.5>
    fcbb:	0f 1f 44 00 00       	nopl   0x0(%rax,%rax,1)

000000000000fcc0 <fcntl@plt>:
    fcc0:	f3 0f 1e fa          	endbr64 
    fcc4:	f2 ff 25 7d 2b 24 00 	bnd jmpq *0x242b7d(%rip)        # 252848 <fcntl@GLIBC_2.2.5>
    fccb:	0f 1f 44 00 00       	nopl   0x0(%rax,%rax,1)

000000000000fcd0 <flux_msg_route_last@plt>:
    fcd0:	f3 0f 1e fa          	endbr64 
    fcd4:	f2 ff 25 75 2b 24 00 	bnd jmpq *0x242b75(%rip)        # 252850 <flux_msg_route_last@Base>
    fcdb:	0f 1f 44 00 00       	nopl   0x0(%rax,%rax,1)

000000000000fce0 <clock_gettime@plt>:
    fce0:	f3 0f 1e fa          	endbr64 
    fce4:	f2 ff 25 6d 2b 24 00 	bnd jmpq *0x242b6d(%rip)        # 252858 <clock_gettime@GLIBC_2.17>
    fceb:	0f 1f 44 00 00       	nopl   0x0(%rax,%rax,1)

000000000000fcf0 <setenv@plt>:
    fcf0:	f3 0f 1e fa          	endbr64 
    fcf4:	f2 ff 25 65 2b 24 00 	bnd jmpq *0x242b65(%rip)        # 252860 <setenv@GLIBC_2.2.5>
    fcfb:	0f 1f 44 00 00       	nopl   0x0(%rax,%rax,1)

000000000000fd00 <write@plt>:
    fd00:	f3 0f 1e fa          	endbr64 
    fd04:	f2 ff 25 5d 2b 24 00 	bnd jmpq *0x242b5d(%rip)        # 252868 <write@GLIBC_2.2.5>
    fd0b:	0f 1f 44 00 00       	nopl   0x0(%rax,%rax,1)

000000000000fd10 <getpid@plt>:
    fd10:	f3 0f 1e fa          	endbr64 
    fd14:	f2 ff 25 55 2b 24 00 	bnd jmpq *0x242b55(%rip)        # 252870 <getpid@GLIBC_2.2.5>
    fd1b:	0f 1f 44 00 00       	nopl   0x0(%rax,%rax,1)

000000000000fd20 <json_array_size@plt>:
    fd20:	f3 0f 1e fa          	endbr64 
    fd24:	f2 ff 25 4d 2b 24 00 	bnd jmpq *0x242b4d(%rip)        # 252878 <json_array_size@libjansson.so.4>
    fd2b:	0f 1f 44 00 00       	nopl   0x0(%rax,%rax,1)

000000000000fd30 <flux_msg_is_private@plt>:
    fd30:	f3 0f 1e fa          	endbr64 
    fd34:	f2 ff 25 45 2b 24 00 	bnd jmpq *0x242b45(%rip)        # 252880 <flux_msg_is_private@Base>
    fd3b:	0f 1f 44 00 00       	nopl   0x0(%rax,%rax,1)

000000000000fd40 <flux_msg_route_clear@plt>:
    fd40:	f3 0f 1e fa          	endbr64 
    fd44:	f2 ff 25 3d 2b 24 00 	bnd jmpq *0x242b3d(%rip)        # 252888 <flux_msg_route_clear@Base>
    fd4b:	0f 1f 44 00 00       	nopl   0x0(%rax,%rax,1)

000000000000fd50 <flux_future_destroy@plt>:
    fd50:	f3 0f 1e fa          	endbr64 
    fd54:	f2 ff 25 35 2b 24 00 	bnd jmpq *0x242b35(%rip)        # 252890 <flux_future_destroy@Base>
    fd5b:	0f 1f 44 00 00       	nopl   0x0(%rax,%rax,1)

000000000000fd60 <flux_future_aux_get@plt>:
    fd60:	f3 0f 1e fa          	endbr64 
    fd64:	f2 ff 25 2d 2b 24 00 	bnd jmpq *0x242b2d(%rip)        # 252898 <flux_future_aux_get@Base>
    fd6b:	0f 1f 44 00 00       	nopl   0x0(%rax,%rax,1)

000000000000fd70 <flux_msg_route_first@plt>:
    fd70:	f3 0f 1e fa          	endbr64 
    fd74:	f2 ff 25 25 2b 24 00 	bnd jmpq *0x242b25(%rip)        # 2528a0 <flux_msg_route_first@Base>
    fd7b:	0f 1f 44 00 00       	nopl   0x0(%rax,%rax,1)

000000000000fd80 <flux_msg_get_matchtag@plt>:
    fd80:	f3 0f 1e fa          	endbr64 
    fd84:	f2 ff 25 1d 2b 24 00 	bnd jmpq *0x242b1d(%rip)        # 2528a8 <flux_msg_get_matchtag@Base>
    fd8b:	0f 1f 44 00 00       	nopl   0x0(%rax,%rax,1)

000000000000fd90 <flux_strerror@plt>:
    fd90:	f3 0f 1e fa          	endbr64 
    fd94:	f2 ff 25 15 2b 24 00 	bnd jmpq *0x242b15(%rip)        # 2528b0 <flux_strerror@Base>
    fd9b:	0f 1f 44 00 00       	nopl   0x0(%rax,%rax,1)

000000000000fda0 <fclose@plt>:
    fda0:	f3 0f 1e fa          	endbr64 
    fda4:	f2 ff 25 0d 2b 24 00 	bnd jmpq *0x242b0d(%rip)        # 2528b8 <fclose@GLIBC_2.2.5>
    fdab:	0f 1f 44 00 00       	nopl   0x0(%rax,%rax,1)

000000000000fdb0 <opendir@plt>:
    fdb0:	f3 0f 1e fa          	endbr64 
    fdb4:	f2 ff 25 05 2b 24 00 	bnd jmpq *0x242b05(%rip)        # 2528c0 <opendir@GLIBC_2.2.5>
    fdbb:	0f 1f 44 00 00       	nopl   0x0(%rax,%rax,1)

000000000000fdc0 <shutdown@plt>:
    fdc0:	f3 0f 1e fa          	endbr64 
    fdc4:	f2 ff 25 fd 2a 24 00 	bnd jmpq *0x242afd(%rip)        # 2528c8 <shutdown@GLIBC_2.2.5>
    fdcb:	0f 1f 44 00 00       	nopl   0x0(%rax,%rax,1)

000000000000fdd0 <json_integer@plt>:
    fdd0:	f3 0f 1e fa          	endbr64 
    fdd4:	f2 ff 25 f5 2a 24 00 	bnd jmpq *0x242af5(%rip)        # 2528d0 <json_integer@libjansson.so.4>
    fddb:	0f 1f 44 00 00       	nopl   0x0(%rax,%rax,1)

000000000000fde0 <flux_msg_encode@plt>:
    fde0:	f3 0f 1e fa          	endbr64 
    fde4:	f2 ff 25 ed 2a 24 00 	bnd jmpq *0x242aed(%rip)        # 2528d8 <flux_msg_encode@Base>
    fdeb:	0f 1f 44 00 00       	nopl   0x0(%rax,%rax,1)

000000000000fdf0 <flux_msg_set_matchtag@plt>:
    fdf0:	f3 0f 1e fa          	endbr64 
    fdf4:	f2 ff 25 e5 2a 24 00 	bnd jmpq *0x242ae5(%rip)        # 2528e0 <flux_msg_set_matchtag@Base>
    fdfb:	0f 1f 44 00 00       	nopl   0x0(%rax,%rax,1)

000000000000fe00 <rmdir@plt>:
    fe00:	f3 0f 1e fa          	endbr64 
    fe04:	f2 ff 25 dd 2a 24 00 	bnd jmpq *0x242add(%rip)        # 2528e8 <rmdir@GLIBC_2.2.5>
    fe0b:	0f 1f 44 00 00       	nopl   0x0(%rax,%rax,1)

000000000000fe10 <flux_msg_encode_size@plt>:
    fe10:	f3 0f 1e fa          	endbr64 
    fe14:	f2 ff 25 d5 2a 24 00 	bnd jmpq *0x242ad5(%rip)        # 2528f0 <flux_msg_encode_size@Base>
    fe1b:	0f 1f 44 00 00       	nopl   0x0(%rax,%rax,1)

000000000000fe20 <strlen@plt>:
    fe20:	f3 0f 1e fa          	endbr64 
    fe24:	f2 ff 25 cd 2a 24 00 	bnd jmpq *0x242acd(%rip)        # 2528f8 <strlen@GLIBC_2.2.5>
    fe2b:	0f 1f 44 00 00       	nopl   0x0(%rax,%rax,1)

000000000000fe30 <flux_future_get@plt>:
    fe30:	f3 0f 1e fa          	endbr64 
    fe34:	f2 ff 25 c5 2a 24 00 	bnd jmpq *0x242ac5(%rip)        # 252900 <flux_future_get@Base>
    fe3b:	0f 1f 44 00 00       	nopl   0x0(%rax,%rax,1)

000000000000fe40 <__lxstat@plt>:
    fe40:	f3 0f 1e fa          	endbr64 
    fe44:	f2 ff 25 bd 2a 24 00 	bnd jmpq *0x242abd(%rip)        # 252908 <__lxstat@GLIBC_2.2.5>
    fe4b:	0f 1f 44 00 00       	nopl   0x0(%rax,%rax,1)

000000000000fe50 <__stack_chk_fail@plt>:
    fe50:	f3 0f 1e fa          	endbr64 
    fe54:	f2 ff 25 b5 2a 24 00 	bnd jmpq *0x242ab5(%rip)        # 252910 <__stack_chk_fail@GLIBC_2.4>
    fe5b:	0f 1f 44 00 00       	nopl   0x0(%rax,%rax,1)

000000000000fe60 <getuid@plt>:
    fe60:	f3 0f 1e fa          	endbr64 
    fe64:	f2 ff 25 ad 2a 24 00 	bnd jmpq *0x242aad(%rip)        # 252918 <getuid@GLIBC_2.2.5>
    fe6b:	0f 1f 44 00 00       	nopl   0x0(%rax,%rax,1)

000000000000fe70 <mmap@plt>:
    fe70:	f3 0f 1e fa          	endbr64 
    fe74:	f2 ff 25 a5 2a 24 00 	bnd jmpq *0x242aa5(%rip)        # 252920 <mmap@GLIBC_2.2.5>
    fe7b:	0f 1f 44 00 00       	nopl   0x0(%rax,%rax,1)

000000000000fe80 <flux_msg_typestr@plt>:
    fe80:	f3 0f 1e fa          	endbr64 
    fe84:	f2 ff 25 9d 2a 24 00 	bnd jmpq *0x242a9d(%rip)        # 252928 <flux_msg_typestr@Base>
    fe8b:	0f 1f 44 00 00       	nopl   0x0(%rax,%rax,1)

000000000000fe90 <accept4@plt>:
    fe90:	f3 0f 1e fa          	endbr64 
    fe94:	f2 ff 25 95 2a 24 00 	bnd jmpq *0x242a95(%rip)        # 252930 <accept4@GLIBC_2.10>
    fe9b:	0f 1f 44 00 00       	nopl   0x0(%rax,%rax,1)

000000000000fea0 <dup2@plt>:
    fea0:	f3 0f 1e fa          	endbr64 
    fea4:	f2 ff 25 8d 2a 24 00 	bnd jmpq *0x242a8d(%rip)        # 252938 <dup2@GLIBC_2.2.5>
    feab:	0f 1f 44 00 00       	nopl   0x0(%rax,%rax,1)

000000000000feb0 <strchr@plt>:
    feb0:	f3 0f 1e fa          	endbr64 
    feb4:	f2 ff 25 85 2a 24 00 	bnd jmpq *0x242a85(%rip)        # 252940 <strchr@GLIBC_2.2.5>
    febb:	0f 1f 44 00 00       	nopl   0x0(%rax,%rax,1)

000000000000fec0 <json_object_key_to_iter@plt>:
    fec0:	f3 0f 1e fa          	endbr64 
    fec4:	f2 ff 25 7d 2a 24 00 	bnd jmpq *0x242a7d(%rip)        # 252948 <json_object_key_to_iter@libjansson.so.4>
    fecb:	0f 1f 44 00 00       	nopl   0x0(%rax,%rax,1)

000000000000fed0 <argz_delete@plt>:
    fed0:	f3 0f 1e fa          	endbr64 
    fed4:	f2 ff 25 75 2a 24 00 	bnd jmpq *0x242a75(%rip)        # 252950 <argz_delete@GLIBC_2.2.5>
    fedb:	0f 1f 44 00 00       	nopl   0x0(%rax,%rax,1)

000000000000fee0 <pthread_mutex_destroy@plt>:
    fee0:	f3 0f 1e fa          	endbr64 
    fee4:	f2 ff 25 6d 2a 24 00 	bnd jmpq *0x242a6d(%rip)        # 252958 <pthread_mutex_destroy@GLIBC_2.2.5>
    feeb:	0f 1f 44 00 00       	nopl   0x0(%rax,%rax,1)

000000000000fef0 <flux_request_unpack@plt>:
    fef0:	f3 0f 1e fa          	endbr64 
    fef4:	f2 ff 25 65 2a 24 00 	bnd jmpq *0x242a65(%rip)        # 252960 <flux_request_unpack@Base>
    fefb:	0f 1f 44 00 00       	nopl   0x0(%rax,%rax,1)

000000000000ff00 <flux_future_fulfill@plt>:
    ff00:	f3 0f 1e fa          	endbr64 
    ff04:	f2 ff 25 5d 2a 24 00 	bnd jmpq *0x242a5d(%rip)        # 252968 <flux_future_fulfill@Base>
    ff0b:	0f 1f 44 00 00       	nopl   0x0(%rax,%rax,1)

000000000000ff10 <__fxstatat@plt>:
    ff10:	f3 0f 1e fa          	endbr64 
    ff14:	f2 ff 25 55 2a 24 00 	bnd jmpq *0x242a55(%rip)        # 252970 <__fxstatat@GLIBC_2.4>
    ff1b:	0f 1f 44 00 00       	nopl   0x0(%rax,%rax,1)

000000000000ff20 <snprintf@plt>:
    ff20:	f3 0f 1e fa          	endbr64 
    ff24:	f2 ff 25 4d 2a 24 00 	bnd jmpq *0x242a4d(%rip)        # 252978 <snprintf@GLIBC_2.2.5>
    ff2b:	0f 1f 44 00 00       	nopl   0x0(%rax,%rax,1)

000000000000ff30 <nanosleep@plt>:
    ff30:	f3 0f 1e fa          	endbr64 
    ff34:	f2 ff 25 45 2a 24 00 	bnd jmpq *0x242a45(%rip)        # 252980 <nanosleep@GLIBC_2.2.5>
    ff3b:	0f 1f 44 00 00       	nopl   0x0(%rax,%rax,1)

000000000000ff40 <gai_strerror@plt>:
    ff40:	f3 0f 1e fa          	endbr64 
    ff44:	f2 ff 25 3d 2a 24 00 	bnd jmpq *0x242a3d(%rip)        # 252988 <gai_strerror@GLIBC_2.2.5>
    ff4b:	0f 1f 44 00 00       	nopl   0x0(%rax,%rax,1)

000000000000ff50 <strrchr@plt>:
    ff50:	f3 0f 1e fa          	endbr64 
    ff54:	f2 ff 25 35 2a 24 00 	bnd jmpq *0x242a35(%rip)        # 252990 <strrchr@GLIBC_2.2.5>
    ff5b:	0f 1f 44 00 00       	nopl   0x0(%rax,%rax,1)

000000000000ff60 <flux_future_get_flux@plt>:
    ff60:	f3 0f 1e fa          	endbr64 
    ff64:	f2 ff 25 2d 2a 24 00 	bnd jmpq *0x242a2d(%rip)        # 252998 <flux_future_get_flux@Base>
    ff6b:	0f 1f 44 00 00       	nopl   0x0(%rax,%rax,1)

000000000000ff70 <flux_msg_get_rolemask@plt>:
    ff70:	f3 0f 1e fa          	endbr64 
    ff74:	f2 ff 25 25 2a 24 00 	bnd jmpq *0x242a25(%rip)        # 2529a0 <flux_msg_get_rolemask@Base>
    ff7b:	0f 1f 44 00 00       	nopl   0x0(%rax,%rax,1)

000000000000ff80 <flux_kvs_txn_create@plt>:
    ff80:	f3 0f 1e fa          	endbr64 
    ff84:	f2 ff 25 1d 2a 24 00 	bnd jmpq *0x242a1d(%rip)        # 2529a8 <flux_kvs_txn_create@Base>
    ff8b:	0f 1f 44 00 00       	nopl   0x0(%rax,%rax,1)

000000000000ff90 <uname@plt>:
    ff90:	f3 0f 1e fa          	endbr64 
    ff94:	f2 ff 25 15 2a 24 00 	bnd jmpq *0x242a15(%rip)        # 2529b0 <uname@GLIBC_2.2.5>
    ff9b:	0f 1f 44 00 00       	nopl   0x0(%rax,%rax,1)

000000000000ffa0 <gmtime_r@plt>:
    ffa0:	f3 0f 1e fa          	endbr64 
    ffa4:	f2 ff 25 0d 2a 24 00 	bnd jmpq *0x242a0d(%rip)        # 2529b8 <gmtime_r@GLIBC_2.2.5>
    ffab:	0f 1f 44 00 00       	nopl   0x0(%rax,%rax,1)

000000000000ffb0 <dirname@plt>:
    ffb0:	f3 0f 1e fa          	endbr64 
    ffb4:	f2 ff 25 05 2a 24 00 	bnd jmpq *0x242a05(%rip)        # 2529c0 <dirname@GLIBC_2.2.5>
    ffbb:	0f 1f 44 00 00       	nopl   0x0(%rax,%rax,1)

000000000000ffc0 <lseek@plt>:
    ffc0:	f3 0f 1e fa          	endbr64 
    ffc4:	f2 ff 25 fd 29 24 00 	bnd jmpq *0x2429fd(%rip)        # 2529c8 <lseek@GLIBC_2.2.5>
    ffcb:	0f 1f 44 00 00       	nopl   0x0(%rax,%rax,1)

000000000000ffd0 <flux_msg_get_userid@plt>:
    ffd0:	f3 0f 1e fa          	endbr64 
    ffd4:	f2 ff 25 f5 29 24 00 	bnd jmpq *0x2429f5(%rip)        # 2529d0 <flux_msg_get_userid@Base>
    ffdb:	0f 1f 44 00 00       	nopl   0x0(%rax,%rax,1)

000000000000ffe0 <gettimeofday@plt>:
    ffe0:	f3 0f 1e fa          	endbr64 
    ffe4:	f2 ff 25 ed 29 24 00 	bnd jmpq *0x2429ed(%rip)        # 2529d8 <gettimeofday@GLIBC_2.2.5>
    ffeb:	0f 1f 44 00 00       	nopl   0x0(%rax,%rax,1)

000000000000fff0 <flux_msg_cmp@plt>:
    fff0:	f3 0f 1e fa          	endbr64 
    fff4:	f2 ff 25 e5 29 24 00 	bnd jmpq *0x2429e5(%rip)        # 2529e0 <flux_msg_cmp@Base>
    fffb:	0f 1f 44 00 00       	nopl   0x0(%rax,%rax,1)

0000000000010000 <__assert_fail@plt>:
   10000:	f3 0f 1e fa          	endbr64 
   10004:	f2 ff 25 dd 29 24 00 	bnd jmpq *0x2429dd(%rip)        # 2529e8 <__assert_fail@GLIBC_2.2.5>
   1000b:	0f 1f 44 00 00       	nopl   0x0(%rax,%rax,1)

0000000000010010 <fnmatch@plt>:
   10010:	f3 0f 1e fa          	endbr64 
   10014:	f2 ff 25 d5 29 24 00 	bnd jmpq *0x2429d5(%rip)        # 2529f0 <fnmatch@GLIBC_2.2.5>
   1001b:	0f 1f 44 00 00       	nopl   0x0(%rax,%rax,1)

0000000000010020 <json_delete@plt>:
   10020:	f3 0f 1e fa          	endbr64 
   10024:	f2 ff 25 cd 29 24 00 	bnd jmpq *0x2429cd(%rip)        # 2529f8 <json_delete@libjansson.so.4>
   1002b:	0f 1f 44 00 00       	nopl   0x0(%rax,%rax,1)

0000000000010030 <memset@plt>:
   10030:	f3 0f 1e fa          	endbr64 
   10034:	f2 ff 25 c5 29 24 00 	bnd jmpq *0x2429c5(%rip)        # 252a00 <memset@GLIBC_2.2.5>
   1003b:	0f 1f 44 00 00       	nopl   0x0(%rax,%rax,1)

0000000000010040 <flux_msg_get_topic@plt>:
   10040:	f3 0f 1e fa          	endbr64 
   10044:	f2 ff 25 bd 29 24 00 	bnd jmpq *0x2429bd(%rip)        # 252a08 <flux_msg_get_topic@Base>
   1004b:	0f 1f 44 00 00       	nopl   0x0(%rax,%rax,1)

0000000000010050 <geteuid@plt>:
   10050:	f3 0f 1e fa          	endbr64 
   10054:	f2 ff 25 b5 29 24 00 	bnd jmpq *0x2429b5(%rip)        # 252a10 <geteuid@GLIBC_2.2.5>
   1005b:	0f 1f 44 00 00       	nopl   0x0(%rax,%rax,1)

0000000000010060 <signalfd@plt>:
   10060:	f3 0f 1e fa          	endbr64 
   10064:	f2 ff 25 ad 29 24 00 	bnd jmpq *0x2429ad(%rip)        # 252a18 <signalfd@GLIBC_2.7>
   1006b:	0f 1f 44 00 00       	nopl   0x0(%rax,%rax,1)

0000000000010070 <strnlen@plt>:
   10070:	f3 0f 1e fa          	endbr64 
   10074:	f2 ff 25 a5 29 24 00 	bnd jmpq *0x2429a5(%rip)        # 252a20 <strnlen@GLIBC_2.2.5>
   1007b:	0f 1f 44 00 00       	nopl   0x0(%rax,%rax,1)

0000000000010080 <json_null@plt>:
   10080:	f3 0f 1e fa          	endbr64 
   10084:	f2 ff 25 9d 29 24 00 	bnd jmpq *0x24299d(%rip)        # 252a28 <json_null@libjansson.so.4>
   1008b:	0f 1f 44 00 00       	nopl   0x0(%rax,%rax,1)

0000000000010090 <flux_match_init@plt>:
   10090:	f3 0f 1e fa          	endbr64 
   10094:	f2 ff 25 95 29 24 00 	bnd jmpq *0x242995(%rip)        # 252a30 <flux_match_init@Base>
   1009b:	0f 1f 44 00 00       	nopl   0x0(%rax,%rax,1)

00000000000100a0 <flux_fd_watcher_create@plt>:
   100a0:	f3 0f 1e fa          	endbr64 
   100a4:	f2 ff 25 8d 29 24 00 	bnd jmpq *0x24298d(%rip)        # 252a38 <flux_fd_watcher_create@Base>
   100ab:	0f 1f 44 00 00       	nopl   0x0(%rax,%rax,1)

00000000000100b0 <close@plt>:
   100b0:	f3 0f 1e fa          	endbr64 
   100b4:	f2 ff 25 85 29 24 00 	bnd jmpq *0x242985(%rip)        # 252a40 <close@GLIBC_2.2.5>
   100bb:	0f 1f 44 00 00       	nopl   0x0(%rax,%rax,1)

00000000000100c0 <flux_msg_set_rolemask@plt>:
   100c0:	f3 0f 1e fa          	endbr64 
   100c4:	f2 ff 25 7d 29 24 00 	bnd jmpq *0x24297d(%rip)        # 252a48 <flux_msg_set_rolemask@Base>
   100cb:	0f 1f 44 00 00       	nopl   0x0(%rax,%rax,1)

00000000000100d0 <pipe@plt>:
   100d0:	f3 0f 1e fa          	endbr64 
   100d4:	f2 ff 25 75 29 24 00 	bnd jmpq *0x242975(%rip)        # 252a50 <pipe@GLIBC_2.2.5>
   100db:	0f 1f 44 00 00       	nopl   0x0(%rax,%rax,1)

00000000000100e0 <getnameinfo@plt>:
   100e0:	f3 0f 1e fa          	endbr64 
   100e4:	f2 ff 25 6d 29 24 00 	bnd jmpq *0x24296d(%rip)        # 252a58 <getnameinfo@GLIBC_2.2.5>
   100eb:	0f 1f 44 00 00       	nopl   0x0(%rax,%rax,1)

00000000000100f0 <flux_msg_copy@plt>:
   100f0:	f3 0f 1e fa          	endbr64 
   100f4:	f2 ff 25 65 29 24 00 	bnd jmpq *0x242965(%rip)        # 252a60 <flux_msg_copy@Base>
   100fb:	0f 1f 44 00 00       	nopl   0x0(%rax,%rax,1)

0000000000010100 <strspn@plt>:
   10100:	f3 0f 1e fa          	endbr64 
   10104:	f2 ff 25 5d 29 24 00 	bnd jmpq *0x24295d(%rip)        # 252a68 <strspn@GLIBC_2.2.5>
   1010b:	0f 1f 44 00 00       	nopl   0x0(%rax,%rax,1)

0000000000010110 <closedir@plt>:
   10110:	f3 0f 1e fa          	endbr64 
   10114:	f2 ff 25 55 29 24 00 	bnd jmpq *0x242955(%rip)        # 252a70 <closedir@GLIBC_2.2.5>
   1011b:	0f 1f 44 00 00       	nopl   0x0(%rax,%rax,1)

0000000000010120 <argz_add@plt>:
   10120:	f3 0f 1e fa          	endbr64 
   10124:	f2 ff 25 4d 29 24 00 	bnd jmpq *0x24294d(%rip)        # 252a78 <argz_add@GLIBC_2.2.5>
   1012b:	0f 1f 44 00 00       	nopl   0x0(%rax,%rax,1)

0000000000010130 <fputc@plt>:
   10130:	f3 0f 1e fa          	endbr64 
   10134:	f2 ff 25 45 29 24 00 	bnd jmpq *0x242945(%rip)        # 252a80 <fputc@GLIBC_2.2.5>
   1013b:	0f 1f 44 00 00       	nopl   0x0(%rax,%rax,1)

0000000000010140 <epoll_ctl@plt>:
   10140:	f3 0f 1e fa          	endbr64 
   10144:	f2 ff 25 3d 29 24 00 	bnd jmpq *0x24293d(%rip)        # 252a88 <epoll_ctl@GLIBC_2.3.2>
   1014b:	0f 1f 44 00 00       	nopl   0x0(%rax,%rax,1)

0000000000010150 <json_array_remove@plt>:
   10150:	f3 0f 1e fa          	endbr64 
   10154:	f2 ff 25 35 29 24 00 	bnd jmpq *0x242935(%rip)        # 252a90 <json_array_remove@libjansson.so.4>
   1015b:	0f 1f 44 00 00       	nopl   0x0(%rax,%rax,1)

0000000000010160 <json_unpack@plt>:
   10160:	f3 0f 1e fa          	endbr64 
   10164:	f2 ff 25 2d 29 24 00 	bnd jmpq *0x24292d(%rip)        # 252a98 <json_unpack@libjansson.so.4>
   1016b:	0f 1f 44 00 00       	nopl   0x0(%rax,%rax,1)

0000000000010170 <strtok_r@plt>:
   10170:	f3 0f 1e fa          	endbr64 
   10174:	f2 ff 25 25 29 24 00 	bnd jmpq *0x242925(%rip)        # 252aa0 <strtok_r@GLIBC_2.2.5>
   1017b:	0f 1f 44 00 00       	nopl   0x0(%rax,%rax,1)

0000000000010180 <read@plt>:
   10180:	f3 0f 1e fa          	endbr64 
   10184:	f2 ff 25 1d 29 24 00 	bnd jmpq *0x24291d(%rip)        # 252aa8 <read@GLIBC_2.2.5>
   1018b:	0f 1f 44 00 00       	nopl   0x0(%rax,%rax,1)

0000000000010190 <strndup@plt>:
   10190:	f3 0f 1e fa          	endbr64 
   10194:	f2 ff 25 15 29 24 00 	bnd jmpq *0x242915(%rip)        # 252ab0 <strndup@GLIBC_2.2.5>
   1019b:	0f 1f 44 00 00       	nopl   0x0(%rax,%rax,1)

00000000000101a0 <fgets@plt>:
   101a0:	f3 0f 1e fa          	endbr64 
   101a4:	f2 ff 25 0d 29 24 00 	bnd jmpq *0x24290d(%rip)        # 252ab8 <fgets@GLIBC_2.2.5>
   101ab:	0f 1f 44 00 00       	nopl   0x0(%rax,%rax,1)

00000000000101b0 <flux_msg_handler_addvec@plt>:
   101b0:	f3 0f 1e fa          	endbr64 
   101b4:	f2 ff 25 05 29 24 00 	bnd jmpq *0x242905(%rip)        # 252ac0 <flux_msg_handler_addvec@Base>
   101bb:	0f 1f 44 00 00       	nopl   0x0(%rax,%rax,1)

00000000000101c0 <getsockopt@plt>:
   101c0:	f3 0f 1e fa          	endbr64 
   101c4:	f2 ff 25 fd 28 24 00 	bnd jmpq *0x2428fd(%rip)        # 252ac8 <getsockopt@GLIBC_2.2.5>
   101cb:	0f 1f 44 00 00       	nopl   0x0(%rax,%rax,1)

00000000000101d0 <_setjmp@plt>:
   101d0:	f3 0f 1e fa          	endbr64 
   101d4:	f2 ff 25 f5 28 24 00 	bnd jmpq *0x2428f5(%rip)        # 252ad0 <_setjmp@GLIBC_2.2.5>
   101db:	0f 1f 44 00 00       	nopl   0x0(%rax,%rax,1)

00000000000101e0 <strtoull@plt>:
   101e0:	f3 0f 1e fa          	endbr64 
   101e4:	f2 ff 25 ed 28 24 00 	bnd jmpq *0x2428ed(%rip)        # 252ad8 <strtoull@GLIBC_2.2.5>
   101eb:	0f 1f 44 00 00       	nopl   0x0(%rax,%rax,1)

00000000000101f0 <__asprintf_chk@plt>:
   101f0:	f3 0f 1e fa          	endbr64 
   101f4:	f2 ff 25 e5 28 24 00 	bnd jmpq *0x2428e5(%rip)        # 252ae0 <__asprintf_chk@GLIBC_2.8>
   101fb:	0f 1f 44 00 00       	nopl   0x0(%rax,%rax,1)

0000000000010200 <json_dumps@plt>:
   10200:	f3 0f 1e fa          	endbr64 
   10204:	f2 ff 25 dd 28 24 00 	bnd jmpq *0x2428dd(%rip)        # 252ae8 <json_dumps@libjansson.so.4>
   1020b:	0f 1f 44 00 00       	nopl   0x0(%rax,%rax,1)

0000000000010210 <calloc@plt>:
   10210:	f3 0f 1e fa          	endbr64 
   10214:	f2 ff 25 d5 28 24 00 	bnd jmpq *0x2428d5(%rip)        # 252af0 <calloc@GLIBC_2.2.5>
   1021b:	0f 1f 44 00 00       	nopl   0x0(%rax,%rax,1)

0000000000010220 <strcmp@plt>:
   10220:	f3 0f 1e fa          	endbr64 
   10224:	f2 ff 25 cd 28 24 00 	bnd jmpq *0x2428cd(%rip)        # 252af8 <strcmp@GLIBC_2.2.5>
   1022b:	0f 1f 44 00 00       	nopl   0x0(%rax,%rax,1)

0000000000010230 <flux_response_encode@plt>:
   10230:	f3 0f 1e fa          	endbr64 
   10234:	f2 ff 25 c5 28 24 00 	bnd jmpq *0x2428c5(%rip)        # 252b00 <flux_response_encode@Base>
   1023b:	0f 1f 44 00 00       	nopl   0x0(%rax,%rax,1)

0000000000010240 <signal@plt>:
   10240:	f3 0f 1e fa          	endbr64 
   10244:	f2 ff 25 bd 28 24 00 	bnd jmpq *0x2428bd(%rip)        # 252b08 <signal@GLIBC_2.2.5>
   1024b:	0f 1f 44 00 00       	nopl   0x0(%rax,%rax,1)

0000000000010250 <dirfd@plt>:
   10250:	f3 0f 1e fa          	endbr64 
   10254:	f2 ff 25 b5 28 24 00 	bnd jmpq *0x2428b5(%rip)        # 252b10 <dirfd@GLIBC_2.2.5>
   1025b:	0f 1f 44 00 00       	nopl   0x0(%rax,%rax,1)

0000000000010260 <strtoll@plt>:
   10260:	f3 0f 1e fa          	endbr64 
   10264:	f2 ff 25 ad 28 24 00 	bnd jmpq *0x2428ad(%rip)        # 252b18 <strtoll@GLIBC_2.2.5>
   1026b:	0f 1f 44 00 00       	nopl   0x0(%rax,%rax,1)

0000000000010270 <flux_msg_set_cred@plt>:
   10270:	f3 0f 1e fa          	endbr64 
   10274:	f2 ff 25 a5 28 24 00 	bnd jmpq *0x2428a5(%rip)        # 252b20 <flux_msg_set_cred@Base>
   1027b:	0f 1f 44 00 00       	nopl   0x0(%rax,%rax,1)

0000000000010280 <__memcpy_chk@plt>:
   10280:	f3 0f 1e fa          	endbr64 
   10284:	f2 ff 25 9d 28 24 00 	bnd jmpq *0x24289d(%rip)        # 252b28 <__memcpy_chk@GLIBC_2.3.4>
   1028b:	0f 1f 44 00 00       	nopl   0x0(%rax,%rax,1)

0000000000010290 <syscall@plt>:
   10290:	f3 0f 1e fa          	endbr64 
   10294:	f2 ff 25 95 28 24 00 	bnd jmpq *0x242895(%rip)        # 252b30 <syscall@GLIBC_2.2.5>
   1029b:	0f 1f 44 00 00       	nopl   0x0(%rax,%rax,1)

00000000000102a0 <sigemptyset@plt>:
   102a0:	f3 0f 1e fa          	endbr64 
   102a4:	f2 ff 25 8d 28 24 00 	bnd jmpq *0x24288d(%rip)        # 252b38 <sigemptyset@GLIBC_2.2.5>
   102ab:	0f 1f 44 00 00       	nopl   0x0(%rax,%rax,1)

00000000000102b0 <feof@plt>:
   102b0:	f3 0f 1e fa          	endbr64 
   102b4:	f2 ff 25 85 28 24 00 	bnd jmpq *0x242885(%rip)        # 252b40 <feof@GLIBC_2.2.5>
   102bb:	0f 1f 44 00 00       	nopl   0x0(%rax,%rax,1)

00000000000102c0 <json_string_value@plt>:
   102c0:	f3 0f 1e fa          	endbr64 
   102c4:	f2 ff 25 7d 28 24 00 	bnd jmpq *0x24287d(%rip)        # 252b48 <json_string_value@libjansson.so.4>
   102cb:	0f 1f 44 00 00       	nopl   0x0(%rax,%rax,1)

00000000000102d0 <timerfd_create@plt>:
   102d0:	f3 0f 1e fa          	endbr64 
   102d4:	f2 ff 25 75 28 24 00 	bnd jmpq *0x242875(%rip)        # 252b50 <timerfd_create@GLIBC_2.8>
   102db:	0f 1f 44 00 00       	nopl   0x0(%rax,%rax,1)

00000000000102e0 <strtol@plt>:
   102e0:	f3 0f 1e fa          	endbr64 
   102e4:	f2 ff 25 6d 28 24 00 	bnd jmpq *0x24286d(%rip)        # 252b58 <strtol@GLIBC_2.2.5>
   102eb:	0f 1f 44 00 00       	nopl   0x0(%rax,%rax,1)

00000000000102f0 <realpath@plt>:
   102f0:	f3 0f 1e fa          	endbr64 
   102f4:	f2 ff 25 65 28 24 00 	bnd jmpq *0x242865(%rip)        # 252b60 <realpath@GLIBC_2.3>
   102fb:	0f 1f 44 00 00       	nopl   0x0(%rax,%rax,1)

0000000000010300 <flux_requeue@plt>:
   10300:	f3 0f 1e fa          	endbr64 
   10304:	f2 ff 25 5d 28 24 00 	bnd jmpq *0x24285d(%rip)        # 252b68 <flux_requeue@Base>
   1030b:	0f 1f 44 00 00       	nopl   0x0(%rax,%rax,1)

0000000000010310 <memcpy@plt>:
   10310:	f3 0f 1e fa          	endbr64 
   10314:	f2 ff 25 55 28 24 00 	bnd jmpq *0x242855(%rip)        # 252b70 <memcpy@GLIBC_2.14>
   1031b:	0f 1f 44 00 00       	nopl   0x0(%rax,%rax,1)

0000000000010320 <sigfillset@plt>:
   10320:	f3 0f 1e fa          	endbr64 
   10324:	f2 ff 25 4d 28 24 00 	bnd jmpq *0x24284d(%rip)        # 252b78 <sigfillset@GLIBC_2.2.5>
   1032b:	0f 1f 44 00 00       	nopl   0x0(%rax,%rax,1)

0000000000010330 <socketpair@plt>:
   10330:	f3 0f 1e fa          	endbr64 
   10334:	f2 ff 25 45 28 24 00 	bnd jmpq *0x242845(%rip)        # 252b80 <socketpair@GLIBC_2.2.5>
   1033b:	0f 1f 44 00 00       	nopl   0x0(%rax,%rax,1)

0000000000010340 <inotify_init@plt>:
   10340:	f3 0f 1e fa          	endbr64 
   10344:	f2 ff 25 3d 28 24 00 	bnd jmpq *0x24283d(%rip)        # 252b88 <inotify_init@GLIBC_2.4>
   1034b:	0f 1f 44 00 00       	nopl   0x0(%rax,%rax,1)

0000000000010350 <__xpg_basename@plt>:
   10350:	f3 0f 1e fa          	endbr64 
   10354:	f2 ff 25 35 28 24 00 	bnd jmpq *0x242835(%rip)        # 252b90 <__xpg_basename@GLIBC_2.2.5>
   1035b:	0f 1f 44 00 00       	nopl   0x0(%rax,%rax,1)

0000000000010360 <json_object_iter_key@plt>:
   10360:	f3 0f 1e fa          	endbr64 
   10364:	f2 ff 25 2d 28 24 00 	bnd jmpq *0x24282d(%rip)        # 252b98 <json_object_iter_key@libjansson.so.4>
   1036b:	0f 1f 44 00 00       	nopl   0x0(%rax,%rax,1)

0000000000010370 <json_pack@plt>:
   10370:	f3 0f 1e fa          	endbr64 
   10374:	f2 ff 25 25 28 24 00 	bnd jmpq *0x242825(%rip)        # 252ba0 <json_pack@libjansson.so.4>
   1037b:	0f 1f 44 00 00       	nopl   0x0(%rax,%rax,1)

0000000000010380 <getgid@plt>:
   10380:	f3 0f 1e fa          	endbr64 
   10384:	f2 ff 25 1d 28 24 00 	bnd jmpq *0x24281d(%rip)        # 252ba8 <getgid@GLIBC_2.2.5>
   1038b:	0f 1f 44 00 00       	nopl   0x0(%rax,%rax,1)

0000000000010390 <statfs@plt>:
   10390:	f3 0f 1e fa          	endbr64 
   10394:	f2 ff 25 15 28 24 00 	bnd jmpq *0x242815(%rip)        # 252bb0 <statfs@GLIBC_2.2.5>
   1039b:	0f 1f 44 00 00       	nopl   0x0(%rax,%rax,1)

00000000000103a0 <select@plt>:
   103a0:	f3 0f 1e fa          	endbr64 
   103a4:	f2 ff 25 0d 28 24 00 	bnd jmpq *0x24280d(%rip)        # 252bb8 <select@GLIBC_2.2.5>
   103ab:	0f 1f 44 00 00       	nopl   0x0(%rax,%rax,1)

00000000000103b0 <flux_request_encode@plt>:
   103b0:	f3 0f 1e fa          	endbr64 
   103b4:	f2 ff 25 05 28 24 00 	bnd jmpq *0x242805(%rip)        # 252bc0 <flux_request_encode@Base>
   103bb:	0f 1f 44 00 00       	nopl   0x0(%rax,%rax,1)

00000000000103c0 <__xstat@plt>:
   103c0:	f3 0f 1e fa          	endbr64 
   103c4:	f2 ff 25 fd 27 24 00 	bnd jmpq *0x2427fd(%rip)        # 252bc8 <__xstat@GLIBC_2.2.5>
   103cb:	0f 1f 44 00 00       	nopl   0x0(%rax,%rax,1)

00000000000103d0 <readdir@plt>:
   103d0:	f3 0f 1e fa          	endbr64 
   103d4:	f2 ff 25 f5 27 24 00 	bnd jmpq *0x2427f5(%rip)        # 252bd0 <readdir@GLIBC_2.2.5>
   103db:	0f 1f 44 00 00       	nopl   0x0(%rax,%rax,1)

00000000000103e0 <json_object_size@plt>:
   103e0:	f3 0f 1e fa          	endbr64 
   103e4:	f2 ff 25 ed 27 24 00 	bnd jmpq *0x2427ed(%rip)        # 252bd8 <json_object_size@libjansson.so.4>
   103eb:	0f 1f 44 00 00       	nopl   0x0(%rax,%rax,1)

00000000000103f0 <pthread_mutex_unlock@plt>:
   103f0:	f3 0f 1e fa          	endbr64 
   103f4:	f2 ff 25 e5 27 24 00 	bnd jmpq *0x2427e5(%rip)        # 252be0 <pthread_mutex_unlock@GLIBC_2.2.5>
   103fb:	0f 1f 44 00 00       	nopl   0x0(%rax,%rax,1)

0000000000010400 <flux_rpc_message@plt>:
   10400:	f3 0f 1e fa          	endbr64 
   10404:	f2 ff 25 dd 27 24 00 	bnd jmpq *0x2427dd(%rip)        # 252be8 <flux_rpc_message@Base>
   1040b:	0f 1f 44 00 00       	nopl   0x0(%rax,%rax,1)

0000000000010410 <flux_response_encode_error@plt>:
   10410:	f3 0f 1e fa          	endbr64 
   10414:	f2 ff 25 d5 27 24 00 	bnd jmpq *0x2427d5(%rip)        # 252bf0 <flux_response_encode_error@Base>
   1041b:	0f 1f 44 00 00       	nopl   0x0(%rax,%rax,1)

0000000000010420 <malloc@plt>:
   10420:	f3 0f 1e fa          	endbr64 
   10424:	f2 ff 25 cd 27 24 00 	bnd jmpq *0x2427cd(%rip)        # 252bf8 <malloc@GLIBC_2.2.5>
   1042b:	0f 1f 44 00 00       	nopl   0x0(%rax,%rax,1)

0000000000010430 <strncasecmp@plt>:
   10430:	f3 0f 1e fa          	endbr64 
   10434:	f2 ff 25 c5 27 24 00 	bnd jmpq *0x2427c5(%rip)        # 252c00 <strncasecmp@GLIBC_2.2.5>
   1043b:	0f 1f 44 00 00       	nopl   0x0(%rax,%rax,1)

0000000000010440 <fflush@plt>:
   10440:	f3 0f 1e fa          	endbr64 
   10444:	f2 ff 25 bd 27 24 00 	bnd jmpq *0x2427bd(%rip)        # 252c08 <fflush@GLIBC_2.2.5>
   1044b:	0f 1f 44 00 00       	nopl   0x0(%rax,%rax,1)

0000000000010450 <flux_msg_handler_delvec@plt>:
   10450:	f3 0f 1e fa          	endbr64 
   10454:	f2 ff 25 b5 27 24 00 	bnd jmpq *0x2427b5(%rip)        # 252c10 <flux_msg_handler_delvec@Base>
   1045b:	0f 1f 44 00 00       	nopl   0x0(%rax,%rax,1)

0000000000010460 <inotify_add_watch@plt>:
   10460:	f3 0f 1e fa          	endbr64 
   10464:	f2 ff 25 ad 27 24 00 	bnd jmpq *0x2427ad(%rip)        # 252c18 <inotify_add_watch@GLIBC_2.4>
   1046b:	0f 1f 44 00 00       	nopl   0x0(%rax,%rax,1)

0000000000010470 <flux_set_reactor@plt>:
   10470:	f3 0f 1e fa          	endbr64 
   10474:	f2 ff 25 a5 27 24 00 	bnd jmpq *0x2427a5(%rip)        # 252c20 <flux_set_reactor@Base>
   1047b:	0f 1f 44 00 00       	nopl   0x0(%rax,%rax,1)

0000000000010480 <flux_msg_decref@plt>:
   10480:	f3 0f 1e fa          	endbr64 
   10484:	f2 ff 25 9d 27 24 00 	bnd jmpq *0x24279d(%rip)        # 252c28 <flux_msg_decref@Base>
   1048b:	0f 1f 44 00 00       	nopl   0x0(%rax,%rax,1)

0000000000010490 <__vasprintf_chk@plt>:
   10490:	f3 0f 1e fa          	endbr64 
   10494:	f2 ff 25 95 27 24 00 	bnd jmpq *0x242795(%rip)        # 252c30 <__vasprintf_chk@GLIBC_2.8>
   1049b:	0f 1f 44 00 00       	nopl   0x0(%rax,%rax,1)

00000000000104a0 <flux_msg_destroy@plt>:
   104a0:	f3 0f 1e fa          	endbr64 
   104a4:	f2 ff 25 8d 27 24 00 	bnd jmpq *0x24278d(%rip)        # 252c38 <flux_msg_destroy@Base>
   104ab:	0f 1f 44 00 00       	nopl   0x0(%rax,%rax,1)

00000000000104b0 <flux_msg_get_flags@plt>:
   104b0:	f3 0f 1e fa          	endbr64 
   104b4:	f2 ff 25 85 27 24 00 	bnd jmpq *0x242785(%rip)        # 252c40 <flux_msg_get_flags@Base>
   104bb:	0f 1f 44 00 00       	nopl   0x0(%rax,%rax,1)

00000000000104c0 <getifaddrs@plt>:
   104c0:	f3 0f 1e fa          	endbr64 
   104c4:	f2 ff 25 7d 27 24 00 	bnd jmpq *0x24277d(%rip)        # 252c48 <getifaddrs@GLIBC_2.3>
   104cb:	0f 1f 44 00 00       	nopl   0x0(%rax,%rax,1)

00000000000104d0 <flux_msg_get_nodeid@plt>:
   104d0:	f3 0f 1e fa          	endbr64 
   104d4:	f2 ff 25 75 27 24 00 	bnd jmpq *0x242775(%rip)        # 252c50 <flux_msg_get_nodeid@Base>
   104db:	0f 1f 44 00 00       	nopl   0x0(%rax,%rax,1)

00000000000104e0 <json_array_get@plt>:
   104e0:	f3 0f 1e fa          	endbr64 
   104e4:	f2 ff 25 6d 27 24 00 	bnd jmpq *0x24276d(%rip)        # 252c58 <json_array_get@libjansson.so.4>
   104eb:	0f 1f 44 00 00       	nopl   0x0(%rax,%rax,1)

00000000000104f0 <__fxstat@plt>:
   104f0:	f3 0f 1e fa          	endbr64 
   104f4:	f2 ff 25 65 27 24 00 	bnd jmpq *0x242765(%rip)        # 252c60 <__fxstat@GLIBC_2.2.5>
   104fb:	0f 1f 44 00 00       	nopl   0x0(%rax,%rax,1)

0000000000010500 <listen@plt>:
   10500:	f3 0f 1e fa          	endbr64 
   10504:	f2 ff 25 5d 27 24 00 	bnd jmpq *0x24275d(%rip)        # 252c68 <listen@GLIBC_2.2.5>
   1050b:	0f 1f 44 00 00       	nopl   0x0(%rax,%rax,1)

0000000000010510 <json_loads@plt>:
   10510:	f3 0f 1e fa          	endbr64 
   10514:	f2 ff 25 55 27 24 00 	bnd jmpq *0x242755(%rip)        # 252c70 <json_loads@libjansson.so.4>
   1051b:	0f 1f 44 00 00       	nopl   0x0(%rax,%rax,1)

0000000000010520 <sscanf@plt>:
   10520:	f3 0f 1e fa          	endbr64 
   10524:	f2 ff 25 4d 27 24 00 	bnd jmpq *0x24274d(%rip)        # 252c78 <sscanf@GLIBC_2.2.5>
   1052b:	0f 1f 44 00 00       	nopl   0x0(%rax,%rax,1)

0000000000010530 <flux_msg_get_errnum@plt>:
   10530:	f3 0f 1e fa          	endbr64 
   10534:	f2 ff 25 45 27 24 00 	bnd jmpq *0x242745(%rip)        # 252c80 <flux_msg_get_errnum@Base>
   1053b:	0f 1f 44 00 00       	nopl   0x0(%rax,%rax,1)

0000000000010540 <getegid@plt>:
   10540:	f3 0f 1e fa          	endbr64 
   10544:	f2 ff 25 3d 27 24 00 	bnd jmpq *0x24273d(%rip)        # 252c88 <getegid@GLIBC_2.2.5>
   1054b:	0f 1f 44 00 00       	nopl   0x0(%rax,%rax,1)

0000000000010550 <mktime@plt>:
   10550:	f3 0f 1e fa          	endbr64 
   10554:	f2 ff 25 35 27 24 00 	bnd jmpq *0x242735(%rip)        # 252c90 <mktime@GLIBC_2.2.5>
   1055b:	0f 1f 44 00 00       	nopl   0x0(%rax,%rax,1)

0000000000010560 <__vsnprintf_chk@plt>:
   10560:	f3 0f 1e fa          	endbr64 
   10564:	f2 ff 25 2d 27 24 00 	bnd jmpq *0x24272d(%rip)        # 252c98 <__vsnprintf_chk@GLIBC_2.3.4>
   1056b:	0f 1f 44 00 00       	nopl   0x0(%rax,%rax,1)

0000000000010570 <flux_msg_is_streaming@plt>:
   10570:	f3 0f 1e fa          	endbr64 
   10574:	f2 ff 25 25 27 24 00 	bnd jmpq *0x242725(%rip)        # 252ca0 <flux_msg_is_streaming@Base>
   1057b:	0f 1f 44 00 00       	nopl   0x0(%rax,%rax,1)

0000000000010580 <flux_msg_incref@plt>:
   10580:	f3 0f 1e fa          	endbr64 
   10584:	f2 ff 25 1d 27 24 00 	bnd jmpq *0x24271d(%rip)        # 252ca8 <flux_msg_incref@Base>
   1058b:	0f 1f 44 00 00       	nopl   0x0(%rax,%rax,1)

0000000000010590 <flux_msg_set_topic@plt>:
   10590:	f3 0f 1e fa          	endbr64 
   10594:	f2 ff 25 15 27 24 00 	bnd jmpq *0x242715(%rip)        # 252cb0 <flux_msg_set_topic@Base>
   1059b:	0f 1f 44 00 00       	nopl   0x0(%rax,%rax,1)

00000000000105a0 <uuid_generate@plt>:
   105a0:	f3 0f 1e fa          	endbr64 
   105a4:	f2 ff 25 0d 27 24 00 	bnd jmpq *0x24270d(%rip)        # 252cb8 <uuid_generate@UUID_1.0>
   105ab:	0f 1f 44 00 00       	nopl   0x0(%rax,%rax,1)

00000000000105b0 <__strncpy_chk@plt>:
   105b0:	f3 0f 1e fa          	endbr64 
   105b4:	f2 ff 25 05 27 24 00 	bnd jmpq *0x242705(%rip)        # 252cc0 <__strncpy_chk@GLIBC_2.3.4>
   105bb:	0f 1f 44 00 00       	nopl   0x0(%rax,%rax,1)

00000000000105c0 <argz_count@plt>:
   105c0:	f3 0f 1e fa          	endbr64 
   105c4:	f2 ff 25 fd 26 24 00 	bnd jmpq *0x2426fd(%rip)        # 252cc8 <argz_count@GLIBC_2.2.5>
   105cb:	0f 1f 44 00 00       	nopl   0x0(%rax,%rax,1)

00000000000105d0 <realloc@plt>:
   105d0:	f3 0f 1e fa          	endbr64 
   105d4:	f2 ff 25 f5 26 24 00 	bnd jmpq *0x2426f5(%rip)        # 252cd0 <realloc@GLIBC_2.2.5>
   105db:	0f 1f 44 00 00       	nopl   0x0(%rax,%rax,1)

00000000000105e0 <munmap@plt>:
   105e0:	f3 0f 1e fa          	endbr64 
   105e4:	f2 ff 25 ed 26 24 00 	bnd jmpq *0x2426ed(%rip)        # 252cd8 <munmap@GLIBC_2.2.5>
   105eb:	0f 1f 44 00 00       	nopl   0x0(%rax,%rax,1)

00000000000105f0 <flux_future_is_ready@plt>:
   105f0:	f3 0f 1e fa          	endbr64 
   105f4:	f2 ff 25 e5 26 24 00 	bnd jmpq *0x2426e5(%rip)        # 252ce0 <flux_future_is_ready@Base>
   105fb:	0f 1f 44 00 00       	nopl   0x0(%rax,%rax,1)

0000000000010600 <flux_future_then@plt>:
   10600:	f3 0f 1e fa          	endbr64 
   10604:	f2 ff 25 dd 26 24 00 	bnd jmpq *0x2426dd(%rip)        # 252ce8 <flux_future_then@Base>
   1060b:	0f 1f 44 00 00       	nopl   0x0(%rax,%rax,1)

0000000000010610 <json_object_iter_value@plt>:
   10610:	f3 0f 1e fa          	endbr64 
   10614:	f2 ff 25 d5 26 24 00 	bnd jmpq *0x2426d5(%rip)        # 252cf0 <json_object_iter_value@libjansson.so.4>
   1061b:	0f 1f 44 00 00       	nopl   0x0(%rax,%rax,1)

0000000000010620 <timegm@plt>:
   10620:	f3 0f 1e fa          	endbr64 
   10624:	f2 ff 25 cd 26 24 00 	bnd jmpq *0x2426cd(%rip)        # 252cf8 <timegm@GLIBC_2.2.5>
   1062b:	0f 1f 44 00 00       	nopl   0x0(%rax,%rax,1)

0000000000010630 <flux_kvs_txn_put@plt>:
   10630:	f3 0f 1e fa          	endbr64 
   10634:	f2 ff 25 c5 26 24 00 	bnd jmpq *0x2426c5(%rip)        # 252d00 <flux_kvs_txn_put@Base>
   1063b:	0f 1f 44 00 00       	nopl   0x0(%rax,%rax,1)

0000000000010640 <freeifaddrs@plt>:
   10640:	f3 0f 1e fa          	endbr64 
   10644:	f2 ff 25 bd 26 24 00 	bnd jmpq *0x2426bd(%rip)        # 252d08 <freeifaddrs@GLIBC_2.3>
   1064b:	0f 1f 44 00 00       	nopl   0x0(%rax,%rax,1)

0000000000010650 <json_object_get@plt>:
   10650:	f3 0f 1e fa          	endbr64 
   10654:	f2 ff 25 b5 26 24 00 	bnd jmpq *0x2426b5(%rip)        # 252d10 <json_object_get@libjansson.so.4>
   1065b:	0f 1f 44 00 00       	nopl   0x0(%rax,%rax,1)

0000000000010660 <flux_event_unsubscribe@plt>:
   10660:	f3 0f 1e fa          	endbr64 
   10664:	f2 ff 25 ad 26 24 00 	bnd jmpq *0x2426ad(%rip)        # 252d18 <flux_event_unsubscribe@Base>
   1066b:	0f 1f 44 00 00       	nopl   0x0(%rax,%rax,1)

0000000000010670 <epoll_wait@plt>:
   10670:	f3 0f 1e fa          	endbr64 
   10674:	f2 ff 25 a5 26 24 00 	bnd jmpq *0x2426a5(%rip)        # 252d20 <epoll_wait@GLIBC_2.3.2>
   1067b:	0f 1f 44 00 00       	nopl   0x0(%rax,%rax,1)

0000000000010680 <poll@plt>:
   10680:	f3 0f 1e fa          	endbr64 
   10684:	f2 ff 25 9d 26 24 00 	bnd jmpq *0x24269d(%rip)        # 252d28 <poll@GLIBC_2.2.5>
   1068b:	0f 1f 44 00 00       	nopl   0x0(%rax,%rax,1)

0000000000010690 <chmod@plt>:
   10690:	f3 0f 1e fa          	endbr64 
   10694:	f2 ff 25 95 26 24 00 	bnd jmpq *0x242695(%rip)        # 252d30 <chmod@GLIBC_2.2.5>
   1069b:	0f 1f 44 00 00       	nopl   0x0(%rax,%rax,1)

00000000000106a0 <bind@plt>:
   106a0:	f3 0f 1e fa          	endbr64 
   106a4:	f2 ff 25 8d 26 24 00 	bnd jmpq *0x24268d(%rip)        # 252d38 <bind@GLIBC_2.2.5>
   106ab:	0f 1f 44 00 00       	nopl   0x0(%rax,%rax,1)

00000000000106b0 <__longjmp_chk@plt>:
   106b0:	f3 0f 1e fa          	endbr64 
   106b4:	f2 ff 25 85 26 24 00 	bnd jmpq *0x242685(%rip)        # 252d40 <__longjmp_chk@GLIBC_2.11>
   106bb:	0f 1f 44 00 00       	nopl   0x0(%rax,%rax,1)

00000000000106c0 <strftime@plt>:
   106c0:	f3 0f 1e fa          	endbr64 
   106c4:	f2 ff 25 7d 26 24 00 	bnd jmpq *0x24267d(%rip)        # 252d48 <strftime@GLIBC_2.2.5>
   106cb:	0f 1f 44 00 00       	nopl   0x0(%rax,%rax,1)

00000000000106d0 <memmove@plt>:
   106d0:	f3 0f 1e fa          	endbr64 
   106d4:	f2 ff 25 75 26 24 00 	bnd jmpq *0x242675(%rip)        # 252d50 <memmove@GLIBC_2.2.5>
   106db:	0f 1f 44 00 00       	nopl   0x0(%rax,%rax,1)

00000000000106e0 <flux_get_reactor@plt>:
   106e0:	f3 0f 1e fa          	endbr64 
   106e4:	f2 ff 25 6d 26 24 00 	bnd jmpq *0x24266d(%rip)        # 252d58 <flux_get_reactor@Base>
   106eb:	0f 1f 44 00 00       	nopl   0x0(%rax,%rax,1)

00000000000106f0 <flux_service_register@plt>:
   106f0:	f3 0f 1e fa          	endbr64 
   106f4:	f2 ff 25 65 26 24 00 	bnd jmpq *0x242665(%rip)        # 252d60 <flux_service_register@Base>
   106fb:	0f 1f 44 00 00       	nopl   0x0(%rax,%rax,1)

0000000000010700 <json_false@plt>:
   10700:	f3 0f 1e fa          	endbr64 
   10704:	f2 ff 25 5d 26 24 00 	bnd jmpq *0x24265d(%rip)        # 252d68 <json_false@libjansson.so.4>
   1070b:	0f 1f 44 00 00       	nopl   0x0(%rax,%rax,1)

0000000000010710 <json_stringn@plt>:
   10710:	f3 0f 1e fa          	endbr64 
   10714:	f2 ff 25 55 26 24 00 	bnd jmpq *0x242655(%rip)        # 252d70 <json_stringn@libjansson.so.4>
   1071b:	0f 1f 44 00 00       	nopl   0x0(%rax,%rax,1)

0000000000010720 <waitpid@plt>:
   10720:	f3 0f 1e fa          	endbr64 
   10724:	f2 ff 25 4d 26 24 00 	bnd jmpq *0x24264d(%rip)        # 252d78 <waitpid@GLIBC_2.2.5>
   1072b:	0f 1f 44 00 00       	nopl   0x0(%rax,%rax,1)

0000000000010730 <flux_msg_frames@plt>:
   10730:	f3 0f 1e fa          	endbr64 
   10734:	f2 ff 25 45 26 24 00 	bnd jmpq *0x242645(%rip)        # 252d80 <flux_msg_frames@Base>
   1073b:	0f 1f 44 00 00       	nopl   0x0(%rax,%rax,1)

0000000000010740 <flux_attr_get@plt>:
   10740:	f3 0f 1e fa          	endbr64 
   10744:	f2 ff 25 3d 26 24 00 	bnd jmpq *0x24263d(%rip)        # 252d88 <flux_attr_get@Base>
   1074b:	0f 1f 44 00 00       	nopl   0x0(%rax,%rax,1)

0000000000010750 <json_object_set_new@plt>:
   10750:	f3 0f 1e fa          	endbr64 
   10754:	f2 ff 25 35 26 24 00 	bnd jmpq *0x242635(%rip)        # 252d90 <json_object_set_new@libjansson.so.4>
   1075b:	0f 1f 44 00 00       	nopl   0x0(%rax,%rax,1)

0000000000010760 <open@plt>:
   10760:	f3 0f 1e fa          	endbr64 
   10764:	f2 ff 25 2d 26 24 00 	bnd jmpq *0x24262d(%rip)        # 252d98 <open@GLIBC_2.2.5>
   1076b:	0f 1f 44 00 00       	nopl   0x0(%rax,%rax,1)

0000000000010770 <flux_future_error_string@plt>:
   10770:	f3 0f 1e fa          	endbr64 
   10774:	f2 ff 25 25 26 24 00 	bnd jmpq *0x242625(%rip)        # 252da0 <flux_future_error_string@Base>
   1077b:	0f 1f 44 00 00       	nopl   0x0(%rax,%rax,1)

0000000000010780 <flux_watcher_destroy@plt>:
   10780:	f3 0f 1e fa          	endbr64 
   10784:	f2 ff 25 1d 26 24 00 	bnd jmpq *0x24261d(%rip)        # 252da8 <flux_watcher_destroy@Base>
   1078b:	0f 1f 44 00 00       	nopl   0x0(%rax,%rax,1)

0000000000010790 <fopen@plt>:
   10790:	f3 0f 1e fa          	endbr64 
   10794:	f2 ff 25 15 26 24 00 	bnd jmpq *0x242615(%rip)        # 252db0 <fopen@GLIBC_2.2.5>
   1079b:	0f 1f 44 00 00       	nopl   0x0(%rax,%rax,1)

00000000000107a0 <flux_timer_watcher_create@plt>:
   107a0:	f3 0f 1e fa          	endbr64 
   107a4:	f2 ff 25 0d 26 24 00 	bnd jmpq *0x24260d(%rip)        # 252db8 <flux_timer_watcher_create@Base>
   107ab:	0f 1f 44 00 00       	nopl   0x0(%rax,%rax,1)

00000000000107b0 <sigdelset@plt>:
   107b0:	f3 0f 1e fa          	endbr64 
   107b4:	f2 ff 25 05 26 24 00 	bnd jmpq *0x242605(%rip)        # 252dc0 <sigdelset@GLIBC_2.2.5>
   107bb:	0f 1f 44 00 00       	nopl   0x0(%rax,%rax,1)

00000000000107c0 <flux_respond_error@plt>:
   107c0:	f3 0f 1e fa          	endbr64 
   107c4:	f2 ff 25 fd 25 24 00 	bnd jmpq *0x2425fd(%rip)        # 252dc8 <flux_respond_error@Base>
   107cb:	0f 1f 44 00 00       	nopl   0x0(%rax,%rax,1)

00000000000107d0 <perror@plt>:
   107d0:	f3 0f 1e fa          	endbr64 
   107d4:	f2 ff 25 f5 25 24 00 	bnd jmpq *0x2425f5(%rip)        # 252dd0 <perror@GLIBC_2.2.5>
   107db:	0f 1f 44 00 00       	nopl   0x0(%rax,%rax,1)

00000000000107e0 <sysconf@plt>:
   107e0:	f3 0f 1e fa          	endbr64 
   107e4:	f2 ff 25 ed 25 24 00 	bnd jmpq *0x2425ed(%rip)        # 252dd8 <sysconf@GLIBC_2.2.5>
   107eb:	0f 1f 44 00 00       	nopl   0x0(%rax,%rax,1)

00000000000107f0 <unsetenv@plt>:
   107f0:	f3 0f 1e fa          	endbr64 
   107f4:	f2 ff 25 e5 25 24 00 	bnd jmpq *0x2425e5(%rip)        # 252de0 <unsetenv@GLIBC_2.2.5>
   107fb:	0f 1f 44 00 00       	nopl   0x0(%rax,%rax,1)

0000000000010800 <flux_msg_decode@plt>:
   10800:	f3 0f 1e fa          	endbr64 
   10804:	f2 ff 25 dd 25 24 00 	bnd jmpq *0x2425dd(%rip)        # 252de8 <flux_msg_decode@Base>
   1080b:	0f 1f 44 00 00       	nopl   0x0(%rax,%rax,1)

0000000000010810 <flux_msg_route_enable@plt>:
   10810:	f3 0f 1e fa          	endbr64 
   10814:	f2 ff 25 d5 25 24 00 	bnd jmpq *0x2425d5(%rip)        # 252df0 <flux_msg_route_enable@Base>
   1081b:	0f 1f 44 00 00       	nopl   0x0(%rax,%rax,1)

0000000000010820 <flux_kvs_txn_destroy@plt>:
   10820:	f3 0f 1e fa          	endbr64 
   10824:	f2 ff 25 cd 25 24 00 	bnd jmpq *0x2425cd(%rip)        # 252df8 <flux_kvs_txn_destroy@Base>
   1082b:	0f 1f 44 00 00       	nopl   0x0(%rax,%rax,1)

0000000000010830 <flux_watcher_stop@plt>:
   10830:	f3 0f 1e fa          	endbr64 
   10834:	f2 ff 25 c5 25 24 00 	bnd jmpq *0x2425c5(%rip)        # 252e00 <flux_watcher_stop@Base>
   1083b:	0f 1f 44 00 00       	nopl   0x0(%rax,%rax,1)

0000000000010840 <json_unpack_ex@plt>:
   10840:	f3 0f 1e fa          	endbr64 
   10844:	f2 ff 25 bd 25 24 00 	bnd jmpq *0x2425bd(%rip)        # 252e08 <json_unpack_ex@libjansson.so.4>
   1084b:	0f 1f 44 00 00       	nopl   0x0(%rax,%rax,1)

0000000000010850 <strtoul@plt>:
   10850:	f3 0f 1e fa          	endbr64 
   10854:	f2 ff 25 b5 25 24 00 	bnd jmpq *0x2425b5(%rip)        # 252e10 <strtoul@GLIBC_2.2.5>
   1085b:	0f 1f 44 00 00       	nopl   0x0(%rax,%rax,1)

0000000000010860 <timerfd_settime@plt>:
   10860:	f3 0f 1e fa          	endbr64 
   10864:	f2 ff 25 ad 25 24 00 	bnd jmpq *0x2425ad(%rip)        # 252e18 <timerfd_settime@GLIBC_2.8>
   1086b:	0f 1f 44 00 00       	nopl   0x0(%rax,%rax,1)

0000000000010870 <execvp@plt>:
   10870:	f3 0f 1e fa          	endbr64 
   10874:	f2 ff 25 a5 25 24 00 	bnd jmpq *0x2425a5(%rip)        # 252e20 <execvp@GLIBC_2.2.5>
   1087b:	0f 1f 44 00 00       	nopl   0x0(%rax,%rax,1)

0000000000010880 <__cxa_atexit@plt>:
   10880:	f3 0f 1e fa          	endbr64 
   10884:	f2 ff 25 9d 25 24 00 	bnd jmpq *0x24259d(%rip)        # 252e28 <__cxa_atexit@GLIBC_2.2.5>
   1088b:	0f 1f 44 00 00       	nopl   0x0(%rax,%rax,1)

0000000000010890 <flux_msg_set_userid@plt>:
   10890:	f3 0f 1e fa          	endbr64 
   10894:	f2 ff 25 95 25 24 00 	bnd jmpq *0x242595(%rip)        # 252e30 <flux_msg_set_userid@Base>
   1089b:	0f 1f 44 00 00       	nopl   0x0(%rax,%rax,1)

00000000000108a0 <strcat@plt>:
   108a0:	f3 0f 1e fa          	endbr64 
   108a4:	f2 ff 25 8d 25 24 00 	bnd jmpq *0x24258d(%rip)        # 252e38 <strcat@GLIBC_2.2.5>
   108ab:	0f 1f 44 00 00       	nopl   0x0(%rax,%rax,1)

00000000000108b0 <flux_rpc@plt>:
   108b0:	f3 0f 1e fa          	endbr64 
   108b4:	f2 ff 25 85 25 24 00 	bnd jmpq *0x242585(%rip)        # 252e40 <flux_rpc@Base>
   108bb:	0f 1f 44 00 00       	nopl   0x0(%rax,%rax,1)

00000000000108c0 <flux_future_aux_set@plt>:
   108c0:	f3 0f 1e fa          	endbr64 
   108c4:	f2 ff 25 7d 25 24 00 	bnd jmpq *0x24257d(%rip)        # 252e48 <flux_future_aux_set@Base>
   108cb:	0f 1f 44 00 00       	nopl   0x0(%rax,%rax,1)

00000000000108d0 <gethostname@plt>:
   108d0:	f3 0f 1e fa          	endbr64 
   108d4:	f2 ff 25 75 25 24 00 	bnd jmpq *0x242575(%rip)        # 252e50 <gethostname@GLIBC_2.2.5>
   108db:	0f 1f 44 00 00       	nopl   0x0(%rax,%rax,1)

00000000000108e0 <epoll_create@plt>:
   108e0:	f3 0f 1e fa          	endbr64 
   108e4:	f2 ff 25 6d 25 24 00 	bnd jmpq *0x24256d(%rip)        # 252e58 <epoll_create@GLIBC_2.3.2>
   108eb:	0f 1f 44 00 00       	nopl   0x0(%rax,%rax,1)

00000000000108f0 <pipe2@plt>:
   108f0:	f3 0f 1e fa          	endbr64 
   108f4:	f2 ff 25 65 25 24 00 	bnd jmpq *0x242565(%rip)        # 252e60 <pipe2@GLIBC_2.9>
   108fb:	0f 1f 44 00 00       	nopl   0x0(%rax,%rax,1)

0000000000010900 <flux_rpc_raw@plt>:
   10900:	f3 0f 1e fa          	endbr64 
   10904:	f2 ff 25 5d 25 24 00 	bnd jmpq *0x24255d(%rip)        # 252e68 <flux_rpc_raw@Base>
   1090b:	0f 1f 44 00 00       	nopl   0x0(%rax,%rax,1)

0000000000010910 <exit@plt>:
   10910:	f3 0f 1e fa          	endbr64 
   10914:	f2 ff 25 55 25 24 00 	bnd jmpq *0x242555(%rip)        # 252e70 <exit@GLIBC_2.2.5>
   1091b:	0f 1f 44 00 00       	nopl   0x0(%rax,%rax,1)

0000000000010920 <connect@plt>:
   10920:	f3 0f 1e fa          	endbr64 
   10924:	f2 ff 25 4d 25 24 00 	bnd jmpq *0x24254d(%rip)        # 252e78 <connect@GLIBC_2.2.5>
   1092b:	0f 1f 44 00 00       	nopl   0x0(%rax,%rax,1)

0000000000010930 <json_object_iter_next@plt>:
   10930:	f3 0f 1e fa          	endbr64 
   10934:	f2 ff 25 45 25 24 00 	bnd jmpq *0x242545(%rip)        # 252e80 <json_object_iter_next@libjansson.so.4>
   1093b:	0f 1f 44 00 00       	nopl   0x0(%rax,%rax,1)

0000000000010940 <eventfd@plt>:
   10940:	f3 0f 1e fa          	endbr64 
   10944:	f2 ff 25 3d 25 24 00 	bnd jmpq *0x24253d(%rip)        # 252e88 <eventfd@GLIBC_2.7>
   1094b:	0f 1f 44 00 00       	nopl   0x0(%rax,%rax,1)

0000000000010950 <fwrite@plt>:
   10950:	f3 0f 1e fa          	endbr64 
   10954:	f2 ff 25 35 25 24 00 	bnd jmpq *0x242535(%rip)        # 252e90 <fwrite@GLIBC_2.2.5>
   1095b:	0f 1f 44 00 00       	nopl   0x0(%rax,%rax,1)

0000000000010960 <__fprintf_chk@plt>:
   10960:	f3 0f 1e fa          	endbr64 
   10964:	f2 ff 25 2d 25 24 00 	bnd jmpq *0x24252d(%rip)        # 252e98 <__fprintf_chk@GLIBC_2.3.4>
   1096b:	0f 1f 44 00 00       	nopl   0x0(%rax,%rax,1)

0000000000010970 <json_object@plt>:
   10970:	f3 0f 1e fa          	endbr64 
   10974:	f2 ff 25 25 25 24 00 	bnd jmpq *0x242525(%rip)        # 252ea0 <json_object@libjansson.so.4>
   1097b:	0f 1f 44 00 00       	nopl   0x0(%rax,%rax,1)

0000000000010980 <sqrt@plt>:
   10980:	f3 0f 1e fa          	endbr64 
   10984:	f2 ff 25 1d 25 24 00 	bnd jmpq *0x24251d(%rip)        # 252ea8 <sqrt@GLIBC_2.2.5>
   1098b:	0f 1f 44 00 00       	nopl   0x0(%rax,%rax,1)

0000000000010990 <getaddrinfo@plt>:
   10990:	f3 0f 1e fa          	endbr64 
   10994:	f2 ff 25 15 25 24 00 	bnd jmpq *0x242515(%rip)        # 252eb0 <getaddrinfo@GLIBC_2.2.5>
   1099b:	0f 1f 44 00 00       	nopl   0x0(%rax,%rax,1)

00000000000109a0 <strdup@plt>:
   109a0:	f3 0f 1e fa          	endbr64 
   109a4:	f2 ff 25 0d 25 24 00 	bnd jmpq *0x24250d(%rip)        # 252eb8 <strdup@GLIBC_2.2.5>
   109ab:	0f 1f 44 00 00       	nopl   0x0(%rax,%rax,1)

00000000000109b0 <flux_event_subscribe@plt>:
   109b0:	f3 0f 1e fa          	endbr64 
   109b4:	f2 ff 25 05 25 24 00 	bnd jmpq *0x242505(%rip)        # 252ec0 <flux_event_subscribe@Base>
   109bb:	0f 1f 44 00 00       	nopl   0x0(%rax,%rax,1)

00000000000109c0 <flux_msg_set_noresponse@plt>:
   109c0:	f3 0f 1e fa          	endbr64 
   109c4:	f2 ff 25 fd 24 24 00 	bnd jmpq *0x2424fd(%rip)        # 252ec8 <flux_msg_set_noresponse@Base>
   109cb:	0f 1f 44 00 00       	nopl   0x0(%rax,%rax,1)

00000000000109d0 <strerror@plt>:
   109d0:	f3 0f 1e fa          	endbr64 
   109d4:	f2 ff 25 f5 24 24 00 	bnd jmpq *0x2424f5(%rip)        # 252ed0 <strerror@GLIBC_2.2.5>
   109db:	0f 1f 44 00 00       	nopl   0x0(%rax,%rax,1)

00000000000109e0 <flux_msg_get_type@plt>:
   109e0:	f3 0f 1e fa          	endbr64 
   109e4:	f2 ff 25 ed 24 24 00 	bnd jmpq *0x2424ed(%rip)        # 252ed8 <flux_msg_get_type@Base>
   109eb:	0f 1f 44 00 00       	nopl   0x0(%rax,%rax,1)

00000000000109f0 <inotify_rm_watch@plt>:
   109f0:	f3 0f 1e fa          	endbr64 
   109f4:	f2 ff 25 e5 24 24 00 	bnd jmpq *0x2424e5(%rip)        # 252ee0 <inotify_rm_watch@GLIBC_2.4>
   109fb:	0f 1f 44 00 00       	nopl   0x0(%rax,%rax,1)

0000000000010a00 <flux_kvs_commit@plt>:
   10a00:	f3 0f 1e fa          	endbr64 
   10a04:	f2 ff 25 dd 24 24 00 	bnd jmpq *0x2424dd(%rip)        # 252ee8 <flux_kvs_commit@Base>
   10a0b:	0f 1f 44 00 00       	nopl   0x0(%rax,%rax,1)

0000000000010a10 <flux_future_and_then@plt>:
   10a10:	f3 0f 1e fa          	endbr64 
   10a14:	f2 ff 25 d5 24 24 00 	bnd jmpq *0x2424d5(%rip)        # 252ef0 <flux_future_and_then@Base>
   10a1b:	0f 1f 44 00 00       	nopl   0x0(%rax,%rax,1)

0000000000010a20 <json_array@plt>:
   10a20:	f3 0f 1e fa          	endbr64 
   10a24:	f2 ff 25 cd 24 24 00 	bnd jmpq *0x2424cd(%rip)        # 252ef8 <json_array@libjansson.so.4>
   10a2b:	0f 1f 44 00 00       	nopl   0x0(%rax,%rax,1)

0000000000010a30 <strptime@plt>:
   10a30:	f3 0f 1e fa          	endbr64 
   10a34:	f2 ff 25 c5 24 24 00 	bnd jmpq *0x2424c5(%rip)        # 252f00 <strptime@GLIBC_2.2.5>
   10a3b:	0f 1f 44 00 00       	nopl   0x0(%rax,%rax,1)

0000000000010a40 <pthread_mutex_init@plt>:
   10a40:	f3 0f 1e fa          	endbr64 
   10a44:	f2 ff 25 bd 24 24 00 	bnd jmpq *0x2424bd(%rip)        # 252f08 <pthread_mutex_init@GLIBC_2.2.5>
   10a4b:	0f 1f 44 00 00       	nopl   0x0(%rax,%rax,1)

0000000000010a50 <epoll_create1@plt>:
   10a50:	f3 0f 1e fa          	endbr64 
   10a54:	f2 ff 25 b5 24 24 00 	bnd jmpq *0x2424b5(%rip)        # 252f10 <epoll_create1@GLIBC_2.9>
   10a5b:	0f 1f 44 00 00       	nopl   0x0(%rax,%rax,1)

0000000000010a60 <__cxa_finalize@plt>:
   10a60:	f3 0f 1e fa          	endbr64 
   10a64:	f2 ff 25 ad 24 24 00 	bnd jmpq *0x2424ad(%rip)        # 252f18 <__cxa_finalize@GLIBC_2.2.5>
   10a6b:	0f 1f 44 00 00       	nopl   0x0(%rax,%rax,1)

0000000000010a70 <argz_stringify@plt>:
   10a70:	f3 0f 1e fa          	endbr64 
   10a74:	f2 ff 25 a5 24 24 00 	bnd jmpq *0x2424a5(%rip)        # 252f20 <argz_stringify@GLIBC_2.2.5>
   10a7b:	0f 1f 44 00 00       	nopl   0x0(%rax,%rax,1)

0000000000010a80 <sigaddset@plt>:
   10a80:	f3 0f 1e fa          	endbr64 
   10a84:	f2 ff 25 9d 24 24 00 	bnd jmpq *0x24249d(%rip)        # 252f28 <sigaddset@GLIBC_2.2.5>
   10a8b:	0f 1f 44 00 00       	nopl   0x0(%rax,%rax,1)

0000000000010a90 <inotify_init1@plt>:
   10a90:	f3 0f 1e fa          	endbr64 
   10a94:	f2 ff 25 95 24 24 00 	bnd jmpq *0x242495(%rip)        # 252f30 <inotify_init1@GLIBC_2.9>
   10a9b:	0f 1f 44 00 00       	nopl   0x0(%rax,%rax,1)

0000000000010aa0 <fork@plt>:
   10aa0:	f3 0f 1e fa          	endbr64 
   10aa4:	f2 ff 25 8d 24 24 00 	bnd jmpq *0x24248d(%rip)        # 252f38 <fork@GLIBC_2.2.5>
   10aab:	0f 1f 44 00 00       	nopl   0x0(%rax,%rax,1)

0000000000010ab0 <strstr@plt>:
   10ab0:	f3 0f 1e fa          	endbr64 
   10ab4:	f2 ff 25 85 24 24 00 	bnd jmpq *0x242485(%rip)        # 252f40 <strstr@GLIBC_2.2.5>
   10abb:	0f 1f 44 00 00       	nopl   0x0(%rax,%rax,1)

0000000000010ac0 <json_array_append_new@plt>:
   10ac0:	f3 0f 1e fa          	endbr64 
   10ac4:	f2 ff 25 7d 24 24 00 	bnd jmpq *0x24247d(%rip)        # 252f48 <json_array_append_new@libjansson.so.4>
   10acb:	0f 1f 44 00 00       	nopl   0x0(%rax,%rax,1)

0000000000010ad0 <pthread_mutex_lock@plt>:
   10ad0:	f3 0f 1e fa          	endbr64 
   10ad4:	f2 ff 25 75 24 24 00 	bnd jmpq *0x242475(%rip)        # 252f50 <pthread_mutex_lock@GLIBC_2.2.5>
   10adb:	0f 1f 44 00 00       	nopl   0x0(%rax,%rax,1)

0000000000010ae0 <pthread_mutex_trylock@plt>:
   10ae0:	f3 0f 1e fa          	endbr64 
   10ae4:	f2 ff 25 6d 24 24 00 	bnd jmpq *0x24246d(%rip)        # 252f58 <pthread_mutex_trylock@GLIBC_2.2.5>
   10aeb:	0f 1f 44 00 00       	nopl   0x0(%rax,%rax,1)

0000000000010af0 <argz_insert@plt>:
   10af0:	f3 0f 1e fa          	endbr64 
   10af4:	f2 ff 25 65 24 24 00 	bnd jmpq *0x242465(%rip)        # 252f60 <argz_insert@GLIBC_2.2.5>
   10afb:	0f 1f 44 00 00       	nopl   0x0(%rax,%rax,1)

0000000000010b00 <__ctype_b_loc@plt>:
   10b00:	f3 0f 1e fa          	endbr64 
   10b04:	f2 ff 25 5d 24 24 00 	bnd jmpq *0x24245d(%rip)        # 252f68 <__ctype_b_loc@GLIBC_2.3>
   10b0b:	0f 1f 44 00 00       	nopl   0x0(%rax,%rax,1)

0000000000010b10 <usleep@plt>:
   10b10:	f3 0f 1e fa          	endbr64 
   10b14:	f2 ff 25 55 24 24 00 	bnd jmpq *0x242455(%rip)        # 252f70 <usleep@GLIBC_2.2.5>
   10b1b:	0f 1f 44 00 00       	nopl   0x0(%rax,%rax,1)

0000000000010b20 <json_vpack_ex@plt>:
   10b20:	f3 0f 1e fa          	endbr64 
   10b24:	f2 ff 25 4d 24 24 00 	bnd jmpq *0x24244d(%rip)        # 252f78 <json_vpack_ex@libjansson.so.4>
   10b2b:	0f 1f 44 00 00       	nopl   0x0(%rax,%rax,1)

0000000000010b30 <freeaddrinfo@plt>:
   10b30:	f3 0f 1e fa          	endbr64 
   10b34:	f2 ff 25 45 24 24 00 	bnd jmpq *0x242445(%rip)        # 252f80 <freeaddrinfo@GLIBC_2.2.5>
   10b3b:	0f 1f 44 00 00       	nopl   0x0(%rax,%rax,1)

0000000000010b40 <json_string@plt>:
   10b40:	f3 0f 1e fa          	endbr64 
   10b44:	f2 ff 25 3d 24 24 00 	bnd jmpq *0x24243d(%rip)        # 252f88 <json_string@libjansson.so.4>
   10b4b:	0f 1f 44 00 00       	nopl   0x0(%rax,%rax,1)

0000000000010b50 <__sprintf_chk@plt>:
   10b50:	f3 0f 1e fa          	endbr64 
   10b54:	f2 ff 25 35 24 24 00 	bnd jmpq *0x242435(%rip)        # 252f90 <__sprintf_chk@GLIBC_2.3.4>
   10b5b:	0f 1f 44 00 00       	nopl   0x0(%rax,%rax,1)

0000000000010b60 <socket@plt>:
   10b60:	f3 0f 1e fa          	endbr64 
   10b64:	f2 ff 25 2d 24 24 00 	bnd jmpq *0x24242d(%rip)        # 252f98 <socket@GLIBC_2.2.5>
   10b6b:	0f 1f 44 00 00       	nopl   0x0(%rax,%rax,1)

Disassembly of section .text:

0000000000010b70 <lru_cache_put.cold.3>:
   10b70:	e8 7b ef ff ff       	callq  faf0 <abort@plt>

0000000000010b75 <timers_reschedule>:
   10b75:	8b b7 64 02 00 00    	mov    0x264(%rdi),%esi
   10b7b:	31 c0                	xor    %eax,%eax
   10b7d:	39 c6                	cmp    %eax,%esi
   10b7f:	7e 2e                	jle    10baf <timers_reschedule+0x3a>
   10b81:	48 8b 8f 58 02 00 00 	mov    0x258(%rdi),%rcx
   10b88:	48 89 c2             	mov    %rax,%rdx
   10b8b:	48 ff c0             	inc    %rax
   10b8e:	48 c1 e2 04          	shl    $0x4,%rdx
   10b92:	48 8d 54 11 30       	lea    0x30(%rcx,%rdx,1),%rdx
   10b97:	48 8b 4a 08          	mov    0x8(%rdx),%rcx
   10b9b:	f2 0f 10 49 20       	movsd  0x20(%rcx),%xmm1
   10ba0:	f2 0f 58 c8          	addsd  %xmm0,%xmm1
   10ba4:	f2 0f 11 49 20       	movsd  %xmm1,0x20(%rcx)
   10ba9:	f2 0f 11 0a          	movsd  %xmm1,(%rdx)
   10bad:	eb ce                	jmp    10b7d <timers_reschedule+0x8>
   10baf:	c3                   	retq   

0000000000010bb0 <ev_linux_version>:
   10bb0:	53                   	push   %rbx
   10bb1:	48 81 ec 90 01 00 00 	sub    $0x190,%rsp
   10bb8:	64 48 8b 04 25 28 00 	mov    %fs:0x28,%rax
   10bbf:	00 00 
   10bc1:	48 89 84 24 88 01 00 	mov    %rax,0x188(%rsp)
   10bc8:	00 
   10bc9:	31 c0                	xor    %eax,%eax
   10bcb:	48 89 e3             	mov    %rsp,%rbx
   10bce:	48 89 df             	mov    %rbx,%rdi
   10bd1:	e8 ba f3 ff ff       	callq  ff90 <uname@plt>
   10bd6:	31 d2                	xor    %edx,%edx
   10bd8:	85 c0                	test   %eax,%eax
   10bda:	75 3e                	jne    10c1a <ev_linux_version+0x6a>
   10bdc:	be 04 00 00 00       	mov    $0x4,%esi
   10be1:	48 8d bb 82 00 00 00 	lea    0x82(%rbx),%rdi
   10be8:	ff ce                	dec    %esi
   10bea:	74 2e                	je     10c1a <ev_linux_version+0x6a>
   10bec:	31 c0                	xor    %eax,%eax
   10bee:	0f be 0f             	movsbl (%rdi),%ecx
   10bf1:	44 8d 41 d0          	lea    -0x30(%rcx),%r8d
   10bf5:	41 80 f8 09          	cmp    $0x9,%r8b
   10bf9:	77 0c                	ja     10c07 <ev_linux_version+0x57>
   10bfb:	6b c0 0a             	imul   $0xa,%eax,%eax
   10bfe:	48 ff c7             	inc    %rdi
   10c01:	8d 44 08 d0          	lea    -0x30(%rax,%rcx,1),%eax
   10c05:	eb e7                	jmp    10bee <ev_linux_version+0x3e>
   10c07:	80 f9 2e             	cmp    $0x2e,%cl
   10c0a:	0f 94 c1             	sete   %cl
   10c0d:	c1 e2 08             	shl    $0x8,%edx
   10c10:	0f b6 c9             	movzbl %cl,%ecx
   10c13:	09 c2                	or     %eax,%edx
   10c15:	48 01 cf             	add    %rcx,%rdi
   10c18:	eb ce                	jmp    10be8 <ev_linux_version+0x38>
   10c1a:	48 8b b4 24 88 01 00 	mov    0x188(%rsp),%rsi
   10c21:	00 
   10c22:	64 48 33 34 25 28 00 	xor    %fs:0x28,%rsi
   10c29:	00 00 
   10c2b:	89 d0                	mov    %edx,%eax
   10c2d:	74 05                	je     10c34 <ev_linux_version+0x84>
   10c2f:	e8 1c f2 ff ff       	callq  fe50 <__stack_chk_fail@plt>
   10c34:	48 81 c4 90 01 00 00 	add    $0x190,%rsp
   10c3b:	5b                   	pop    %rbx
   10c3c:	c3                   	retq   

0000000000010c3d <verify_watcher>:
   10c3d:	52                   	push   %rdx
   10c3e:	8b 46 08             	mov    0x8(%rsi),%eax
   10c41:	8d 50 02             	lea    0x2(%rax),%edx
   10c44:	83 fa 04             	cmp    $0x4,%edx
   10c47:	76 1f                	jbe    10c68 <verify_watcher+0x2b>
   10c49:	48 8d 0d 68 24 03 00 	lea    0x32468(%rip),%rcx        # 430b8 <__PRETTY_FUNCTION__.11212>
   10c50:	ba f5 0d 00 00       	mov    $0xdf5,%edx
   10c55:	48 8d 35 05 16 03 00 	lea    0x31605(%rip),%rsi        # 42261 <__FUNCTION__.3752+0x21>
   10c5c:	48 8d 3d d5 17 03 00 	lea    0x317d5(%rip),%rdi        # 42438 <__FUNCTION__.3752+0x1f8>
   10c63:	e8 98 f3 ff ff       	callq  10000 <__assert_fail@plt>
   10c68:	48 63 46 04          	movslq 0x4(%rsi),%rax
   10c6c:	85 c0                	test   %eax,%eax
   10c6e:	74 31                	je     10ca1 <verify_watcher+0x64>
   10c70:	48 63 d2             	movslq %edx,%rdx
   10c73:	48 c1 e0 04          	shl    $0x4,%rax
   10c77:	48 03 44 d7 30       	add    0x30(%rdi,%rdx,8),%rax
   10c7c:	48 39 70 f0          	cmp    %rsi,-0x10(%rax)
   10c80:	74 1f                	je     10ca1 <verify_watcher+0x64>
   10c82:	48 8d 0d 2f 24 03 00 	lea    0x3242f(%rip),%rcx        # 430b8 <__PRETTY_FUNCTION__.11212>
   10c89:	ba f8 0d 00 00       	mov    $0xdf8,%edx
   10c8e:	48 8d 35 cc 15 03 00 	lea    0x315cc(%rip),%rsi        # 42261 <__FUNCTION__.3752+0x21>
   10c95:	48 8d 3d ec 17 03 00 	lea    0x317ec(%rip),%rdi        # 42488 <__FUNCTION__.3752+0x248>
   10c9c:	e8 5f f3 ff ff       	callq  10000 <__assert_fail@plt>
   10ca1:	58                   	pop    %rax
   10ca2:	c3                   	retq   

0000000000010ca3 <verify_heap>:
   10ca3:	41 56                	push   %r14
   10ca5:	49 89 f6             	mov    %rsi,%r14
   10ca8:	41 55                	push   %r13
   10caa:	4c 8d 6e 30          	lea    0x30(%rsi),%r13
   10cae:	41 54                	push   %r12
   10cb0:	41 bc 03 00 00 00    	mov    $0x3,%r12d
   10cb6:	55                   	push   %rbp
   10cb7:	48 89 fd             	mov    %rdi,%rbp
   10cba:	53                   	push   %rbx
   10cbb:	8d 5a 02             	lea    0x2(%rdx),%ebx
   10cbe:	44 39 e3             	cmp    %r12d,%ebx
   10cc1:	0f 8c a9 00 00 00    	jl     10d70 <verify_heap+0xcd>
   10cc7:	49 8b 75 08          	mov    0x8(%r13),%rsi
   10ccb:	44 39 26             	cmp    %r12d,(%rsi)
   10cce:	74 1f                	je     10cef <verify_heap+0x4c>
   10cd0:	48 8d 0d d1 23 03 00 	lea    0x323d1(%rip),%rcx        # 430a8 <__PRETTY_FUNCTION__.11219>
   10cd7:	ba 03 0e 00 00       	mov    $0xe03,%edx
   10cdc:	48 8d 35 7e 15 03 00 	lea    0x3157e(%rip),%rsi        # 42261 <__FUNCTION__.3752+0x21>
   10ce3:	48 8d 3d fe 17 03 00 	lea    0x317fe(%rip),%rdi        # 424e8 <__FUNCTION__.3752+0x2a8>
   10cea:	e8 11 f3 ff ff       	callq  10000 <__assert_fail@plt>
   10cef:	f2 41 0f 10 45 00    	movsd  0x0(%r13),%xmm0
   10cf5:	41 83 fc 03          	cmp    $0x3,%r12d
   10cf9:	74 39                	je     10d34 <verify_heap+0x91>
   10cfb:	41 8d 44 24 fc       	lea    -0x4(%r12),%eax
   10d00:	c1 f8 02             	sar    $0x2,%eax
   10d03:	48 98                	cltq   
   10d05:	48 83 c0 03          	add    $0x3,%rax
   10d09:	48 c1 e0 04          	shl    $0x4,%rax
   10d0d:	66 41 0f 2f 04 06    	comisd (%r14,%rax,1),%xmm0
   10d13:	73 1f                	jae    10d34 <verify_heap+0x91>
   10d15:	48 8d 0d 8c 23 03 00 	lea    0x3238c(%rip),%rcx        # 430a8 <__PRETTY_FUNCTION__.11219>
   10d1c:	ba 04 0e 00 00       	mov    $0xe04,%edx
   10d21:	48 8d 35 39 15 03 00 	lea    0x31539(%rip),%rsi        # 42261 <__FUNCTION__.3752+0x21>
   10d28:	48 8d 3d 09 18 03 00 	lea    0x31809(%rip),%rdi        # 42538 <__FUNCTION__.3752+0x2f8>
   10d2f:	e8 cc f2 ff ff       	callq  10000 <__assert_fail@plt>
   10d34:	49 83 c5 10          	add    $0x10,%r13
   10d38:	66 0f 2e 46 20       	ucomisd 0x20(%rsi),%xmm0
   10d3d:	7a 02                	jp     10d41 <verify_heap+0x9e>
   10d3f:	74 1f                	je     10d60 <verify_heap+0xbd>
   10d41:	48 8d 0d 60 23 03 00 	lea    0x32360(%rip),%rcx        # 430a8 <__PRETTY_FUNCTION__.11219>
   10d48:	ba 05 0e 00 00       	mov    $0xe05,%edx
   10d4d:	48 8d 35 0d 15 03 00 	lea    0x3150d(%rip),%rsi        # 42261 <__FUNCTION__.3752+0x21>
   10d54:	48 8d 3d 45 18 03 00 	lea    0x31845(%rip),%rdi        # 425a0 <__FUNCTION__.3752+0x360>
   10d5b:	e8 a0 f2 ff ff       	callq  10000 <__assert_fail@plt>
   10d60:	48 89 ef             	mov    %rbp,%rdi
   10d63:	41 ff c4             	inc    %r12d
   10d66:	e8 d2 fe ff ff       	callq  10c3d <verify_watcher>
   10d6b:	e9 4e ff ff ff       	jmpq   10cbe <verify_heap+0x1b>
   10d70:	5b                   	pop    %rbx
   10d71:	5d                   	pop    %rbp
   10d72:	41 5c                	pop    %r12
   10d74:	41 5d                	pop    %r13
   10d76:	41 5e                	pop    %r14
   10d78:	c3                   	retq   

0000000000010d79 <array_verify>:
   10d79:	41 54                	push   %r12
   10d7b:	49 89 fc             	mov    %rdi,%r12
   10d7e:	55                   	push   %rbp
   10d7f:	48 89 f5             	mov    %rsi,%rbp
   10d82:	53                   	push   %rbx
   10d83:	48 63 da             	movslq %edx,%rbx
   10d86:	85 db                	test   %ebx,%ebx
   10d88:	74 35                	je     10dbf <array_verify+0x46>
   10d8a:	48 8b 74 dd f8       	mov    -0x8(%rbp,%rbx,8),%rsi
   10d8f:	39 1e                	cmp    %ebx,(%rsi)
   10d91:	74 1f                	je     10db2 <array_verify+0x39>
   10d93:	48 8d 0d fe 22 03 00 	lea    0x322fe(%rip),%rcx        # 43098 <__PRETTY_FUNCTION__.11228>
   10d9a:	ba 11 0e 00 00       	mov    $0xe11,%edx
   10d9f:	48 8d 35 bb 14 03 00 	lea    0x314bb(%rip),%rsi        # 42261 <__FUNCTION__.3752+0x21>
   10da6:	48 8d 3d 4b 18 03 00 	lea    0x3184b(%rip),%rdi        # 425f8 <__FUNCTION__.3752+0x3b8>
   10dad:	e8 4e f2 ff ff       	callq  10000 <__assert_fail@plt>
   10db2:	4c 89 e7             	mov    %r12,%rdi
   10db5:	48 ff cb             	dec    %rbx
   10db8:	e8 80 fe ff ff       	callq  10c3d <verify_watcher>
   10dbd:	eb c7                	jmp    10d86 <array_verify+0xd>
   10dbf:	5b                   	pop    %rbx
   10dc0:	5d                   	pop    %rbp
   10dc1:	41 5c                	pop    %r12
   10dc3:	c3                   	retq   

0000000000010dc4 <ev_syserr>:
   10dc4:	48 8b 05 3d 73 24 00 	mov    0x24733d(%rip),%rax        # 258108 <syserr_cb>
   10dcb:	48 85 c0             	test   %rax,%rax
   10dce:	74 02                	je     10dd2 <ev_syserr+0xe>
   10dd0:	ff e0                	jmpq   *%rax
   10dd2:	50                   	push   %rax
   10dd3:	e8 f8 f9 ff ff       	callq  107d0 <perror@plt>
   10dd8:	e8 13 ed ff ff       	callq  faf0 <abort@plt>

0000000000010ddd <iouring_internal_init>:
   10ddd:	55                   	push   %rbp
   10dde:	b9 1e 00 00 00       	mov    $0x1e,%ecx
   10de3:	53                   	push   %rbx
   10de4:	48 89 fb             	mov    %rdi,%rbx
   10de7:	48 81 ec 88 00 00 00 	sub    $0x88,%rsp
   10dee:	64 48 8b 04 25 28 00 	mov    %fs:0x28,%rax
   10df5:	00 00 
   10df7:	48 89 44 24 78       	mov    %rax,0x78(%rsp)
   10dfc:	31 c0                	xor    %eax,%eax
   10dfe:	48 89 e7             	mov    %rsp,%rdi
   10e01:	48 89 e5             	mov    %rsp,%rbp
   10e04:	c7 83 a4 01 00 00 00 	movl   $0x0,0x1a4(%rbx)
   10e0b:	00 00 00 
   10e0e:	c7 83 10 02 00 00 ff 	movl   $0xffffffff,0x210(%rbx)
   10e15:	ff ff ff 
   10e18:	f3 ab                	rep stos %eax,%es:(%rdi)
   10e1a:	48 83 c8 ff          	or     $0xffffffffffffffff,%rax
   10e1e:	48 89 83 b0 01 00 00 	mov    %rax,0x1b0(%rbx)
   10e25:	48 89 83 b8 01 00 00 	mov    %rax,0x1b8(%rbx)
   10e2c:	48 89 83 c0 01 00 00 	mov    %rax,0x1c0(%rbx)
   10e33:	8b 05 d7 72 24 00    	mov    0x2472d7(%rip),%eax        # 258110 <have_monotonic>
   10e39:	85 c0                	test   %eax,%eax
   10e3b:	75 2f                	jne    10e6c <iouring_internal_init+0x8f>
   10e3d:	83 c8 ff             	or     $0xffffffff,%eax
   10e40:	e9 84 01 00 00       	jmpq   10fc9 <iouring_internal_init+0x1ec>
   10e45:	e8 c6 ec ff ff       	callq  fb10 <__errno_location@plt>
   10e4a:	83 38 16             	cmpl   $0x16,(%rax)
   10e4d:	75 ee                	jne    10e3d <iouring_internal_init+0x60>
   10e4f:	83 bb ac 01 00 00 00 	cmpl   $0x0,0x1ac(%rbx)
   10e56:	75 e5                	jne    10e3d <iouring_internal_init+0x60>
   10e58:	8b 83 a8 01 00 00    	mov    0x1a8(%rbx),%eax
   10e5e:	d1 f8                	sar    %eax
   10e60:	89 83 a8 01 00 00    	mov    %eax,0x1a8(%rbx)
   10e66:	89 83 ac 01 00 00    	mov    %eax,0x1ac(%rbx)
   10e6c:	8b b3 a8 01 00 00    	mov    0x1a8(%rbx),%esi
   10e72:	48 89 ea             	mov    %rbp,%rdx
   10e75:	bf a9 01 00 00       	mov    $0x1a9,%edi
   10e7a:	31 c0                	xor    %eax,%eax
   10e7c:	e8 0f f4 ff ff       	callq  10290 <syscall@plt>
   10e81:	89 83 a0 01 00 00    	mov    %eax,0x1a0(%rbx)
   10e87:	85 c0                	test   %eax,%eax
   10e89:	78 ba                	js     10e45 <iouring_internal_init+0x68>
   10e8b:	8b 0c 24             	mov    (%rsp),%ecx
   10e8e:	8b 54 24 40          	mov    0x40(%rsp),%edx
   10e92:	45 31 c9             	xor    %r9d,%r9d
   10e95:	31 ff                	xor    %edi,%edi
   10e97:	41 89 c0             	mov    %eax,%r8d
   10e9a:	8d 34 8a             	lea    (%rdx,%rcx,4),%esi
   10e9d:	8b 54 24 04          	mov    0x4(%rsp),%edx
   10ea1:	c1 e1 06             	shl    $0x6,%ecx
   10ea4:	89 b3 c8 01 00 00    	mov    %esi,0x1c8(%rbx)
   10eaa:	c1 e2 04             	shl    $0x4,%edx
   10ead:	03 54 24 64          	add    0x64(%rsp),%edx
   10eb1:	89 8b d0 01 00 00    	mov    %ecx,0x1d0(%rbx)
   10eb7:	b9 01 80 00 00       	mov    $0x8001,%ecx
   10ebc:	89 93 cc 01 00 00    	mov    %edx,0x1cc(%rbx)
   10ec2:	ba 03 00 00 00       	mov    $0x3,%edx
   10ec7:	e8 a4 ef ff ff       	callq  fe70 <mmap@plt>
   10ecc:	8b b3 cc 01 00 00    	mov    0x1cc(%rbx),%esi
   10ed2:	31 ff                	xor    %edi,%edi
   10ed4:	44 8b 83 a0 01 00 00 	mov    0x1a0(%rbx),%r8d
   10edb:	41 b9 00 00 00 08    	mov    $0x8000000,%r9d
   10ee1:	b9 01 80 00 00       	mov    $0x8001,%ecx
   10ee6:	ba 03 00 00 00       	mov    $0x3,%edx
   10eeb:	48 89 83 b0 01 00 00 	mov    %rax,0x1b0(%rbx)
   10ef2:	e8 79 ef ff ff       	callq  fe70 <mmap@plt>
   10ef7:	8b b3 d0 01 00 00    	mov    0x1d0(%rbx),%esi
   10efd:	31 ff                	xor    %edi,%edi
   10eff:	44 8b 83 a0 01 00 00 	mov    0x1a0(%rbx),%r8d
   10f06:	41 b9 00 00 00 10    	mov    $0x10000000,%r9d
   10f0c:	b9 01 80 00 00       	mov    $0x8001,%ecx
   10f11:	ba 03 00 00 00       	mov    $0x3,%edx
   10f16:	48 89 83 b8 01 00 00 	mov    %rax,0x1b8(%rbx)
   10f1d:	e8 4e ef ff ff       	callq  fe70 <mmap@plt>
   10f22:	48 83 bb b0 01 00 00 	cmpq   $0xffffffffffffffff,0x1b0(%rbx)
   10f29:	ff 
   10f2a:	48 89 83 c0 01 00 00 	mov    %rax,0x1c0(%rbx)
   10f31:	0f 84 06 ff ff ff    	je     10e3d <iouring_internal_init+0x60>
   10f37:	48 83 bb b8 01 00 00 	cmpq   $0xffffffffffffffff,0x1b8(%rbx)
   10f3e:	ff 
   10f3f:	0f 84 f8 fe ff ff    	je     10e3d <iouring_internal_init+0x60>
   10f45:	48 ff c0             	inc    %rax
   10f48:	0f 84 ef fe ff ff    	je     10e3d <iouring_internal_init+0x60>
   10f4e:	8b 44 24 28          	mov    0x28(%rsp),%eax
   10f52:	be 00 00 08 00       	mov    $0x80000,%esi
   10f57:	bf 01 00 00 00       	mov    $0x1,%edi
   10f5c:	89 83 d4 01 00 00    	mov    %eax,0x1d4(%rbx)
   10f62:	48 8b 44 24 2c       	mov    0x2c(%rsp),%rax
   10f67:	48 89 83 d8 01 00 00 	mov    %rax,0x1d8(%rbx)
   10f6e:	48 8b 44 24 34       	mov    0x34(%rsp),%rax
   10f73:	48 89 83 e0 01 00 00 	mov    %rax,0x1e0(%rbx)
   10f7a:	48 8b 44 24 3c       	mov    0x3c(%rsp),%rax
   10f7f:	48 89 83 e8 01 00 00 	mov    %rax,0x1e8(%rbx)
   10f86:	48 8b 44 24 50       	mov    0x50(%rsp),%rax
   10f8b:	48 89 83 f0 01 00 00 	mov    %rax,0x1f0(%rbx)
   10f92:	48 8b 44 24 58       	mov    0x58(%rsp),%rax
   10f97:	48 89 83 f8 01 00 00 	mov    %rax,0x1f8(%rbx)
   10f9e:	48 8b 44 24 60       	mov    0x60(%rsp),%rax
   10fa3:	48 89 83 00 02 00 00 	mov    %rax,0x200(%rbx)
   10faa:	e8 21 f3 ff ff       	callq  102d0 <timerfd_create@plt>
   10faf:	89 83 10 02 00 00    	mov    %eax,0x210(%rbx)
   10fb5:	85 c0                	test   %eax,%eax
   10fb7:	78 10                	js     10fc9 <iouring_internal_init+0x1ec>
   10fb9:	48 8b 05 98 21 03 00 	mov    0x32198(%rip),%rax        # 43158 <__PRETTY_FUNCTION__.11024+0x18>
   10fc0:	48 89 83 08 02 00 00 	mov    %rax,0x208(%rbx)
   10fc7:	31 c0                	xor    %eax,%eax
   10fc9:	48 8b 7c 24 78       	mov    0x78(%rsp),%rdi
   10fce:	64 48 33 3c 25 28 00 	xor    %fs:0x28,%rdi
   10fd5:	00 00 
   10fd7:	74 05                	je     10fde <iouring_internal_init+0x201>
   10fd9:	e8 72 ee ff ff       	callq  fe50 <__stack_chk_fail@plt>
   10fde:	48 81 c4 88 00 00 00 	add    $0x88,%rsp
   10fe5:	5b                   	pop    %rbx
   10fe6:	5d                   	pop    %rbp
   10fe7:	c3                   	retq   

0000000000010fe8 <periodics_reschedule>:
   10fe8:	41 55                	push   %r13
   10fea:	45 31 ed             	xor    %r13d,%r13d
   10fed:	41 54                	push   %r12
   10fef:	55                   	push   %rbp
   10ff0:	48 89 fd             	mov    %rdi,%rbp
   10ff3:	53                   	push   %rbx
   10ff4:	52                   	push   %rdx
   10ff5:	44 8b 95 74 02 00 00 	mov    0x274(%rbp),%r10d
   10ffc:	41 8d 45 03          	lea    0x3(%r13),%eax
   11000:	4c 8b 85 68 02 00 00 	mov    0x268(%rbp),%r8
   11007:	41 8d 52 02          	lea    0x2(%r10),%edx
   1100b:	39 c2                	cmp    %eax,%edx
   1100d:	7c 5f                	jl     1106e <periodics_reschedule+0x86>
   1100f:	4c 89 eb             	mov    %r13,%rbx
   11012:	48 c1 e3 04          	shl    $0x4,%rbx
   11016:	48 83 c3 30          	add    $0x30,%rbx
   1101a:	4d 8b 64 18 08       	mov    0x8(%r8,%rbx,1),%r12
   1101f:	49 8b 44 24 38       	mov    0x38(%r12),%rax
   11024:	48 85 c0             	test   %rax,%rax
   11027:	74 13                	je     1103c <periodics_reschedule+0x54>
   11029:	f2 0f 10 45 00       	movsd  0x0(%rbp),%xmm0
   1102e:	4c 89 e7             	mov    %r12,%rdi
   11031:	ff d0                	callq  *%rax
   11033:	f2 41 0f 11 44 24 20 	movsd  %xmm0,0x20(%r12)
   1103a:	eb 19                	jmp    11055 <periodics_reschedule+0x6d>
   1103c:	0f 57 c9             	xorps  %xmm1,%xmm1
   1103f:	66 41 0f 2e 4c 24 30 	ucomisd 0x30(%r12),%xmm1
   11046:	7a 02                	jp     1104a <periodics_reschedule+0x62>
   11048:	74 0b                	je     11055 <periodics_reschedule+0x6d>
   1104a:	4c 89 e6             	mov    %r12,%rsi
   1104d:	48 89 ef             	mov    %rbp,%rdi
   11050:	e8 bb 64 01 00       	callq  27510 <periodic_recalc>
   11055:	48 03 9d 68 02 00 00 	add    0x268(%rbp),%rbx
   1105c:	49 ff c5             	inc    %r13
   1105f:	48 8b 43 08          	mov    0x8(%rbx),%rax
   11063:	f2 0f 10 40 20       	movsd  0x20(%rax),%xmm0
   11068:	f2 0f 11 03          	movsd  %xmm0,(%rbx)
   1106c:	eb 87                	jmp    10ff5 <periodics_reschedule+0xd>
   1106e:	49 8d 78 30          	lea    0x30(%r8),%rdi
   11072:	31 f6                	xor    %esi,%esi
   11074:	41 b9 04 00 00 00    	mov    $0x4,%r9d
   1107a:	41 39 f2             	cmp    %esi,%r10d
   1107d:	7e 58                	jle    110d7 <periodics_reschedule+0xef>
   1107f:	f2 0f 10 07          	movsd  (%rdi),%xmm0
   11083:	4c 8b 5f 08          	mov    0x8(%rdi),%r11
   11087:	8d 4e 03             	lea    0x3(%rsi),%ecx
   1108a:	8d 41 fc             	lea    -0x4(%rcx),%eax
   1108d:	99                   	cltd   
   1108e:	41 f7 f9             	idiv   %r9d
   11091:	48 63 d1             	movslq %ecx,%rdx
   11094:	48 c1 e2 04          	shl    $0x4,%rdx
   11098:	4c 01 c2             	add    %r8,%rdx
   1109b:	83 c0 03             	add    $0x3,%eax
   1109e:	39 c1                	cmp    %eax,%ecx
   110a0:	74 22                	je     110c4 <periodics_reschedule+0xdc>
   110a2:	48 63 d8             	movslq %eax,%rbx
   110a5:	48 c1 e3 04          	shl    $0x4,%rbx
   110a9:	4c 01 c3             	add    %r8,%rbx
   110ac:	66 0f 2f 03          	comisd (%rbx),%xmm0
   110b0:	73 10                	jae    110c2 <periodics_reschedule+0xda>
   110b2:	0f 10 13             	movups (%rbx),%xmm2
   110b5:	0f 11 12             	movups %xmm2,(%rdx)
   110b8:	48 8b 52 08          	mov    0x8(%rdx),%rdx
   110bc:	89 0a                	mov    %ecx,(%rdx)
   110be:	89 c1                	mov    %eax,%ecx
   110c0:	eb c8                	jmp    1108a <periodics_reschedule+0xa2>
   110c2:	89 c8                	mov    %ecx,%eax
   110c4:	f2 0f 11 02          	movsd  %xmm0,(%rdx)
   110c8:	ff c6                	inc    %esi
   110ca:	48 83 c7 10          	add    $0x10,%rdi
   110ce:	4c 89 5a 08          	mov    %r11,0x8(%rdx)
   110d2:	41 89 03             	mov    %eax,(%r11)
   110d5:	eb a3                	jmp    1107a <periodics_reschedule+0x92>
   110d7:	58                   	pop    %rax
   110d8:	5b                   	pop    %rbx
   110d9:	5d                   	pop    %rbp
   110da:	41 5c                	pop    %r12
   110dc:	41 5d                	pop    %r13
   110de:	c3                   	retq   

00000000000110df <array_realloc>:
   110df:	8b 02                	mov    (%rdx),%eax
   110e1:	49 89 f0             	mov    %rsi,%r8
   110e4:	48 89 d6             	mov    %rdx,%rsi
   110e7:	ff c0                	inc    %eax
   110e9:	01 c0                	add    %eax,%eax
   110eb:	39 c1                	cmp    %eax,%ecx
   110ed:	7f fa                	jg     110e9 <array_realloc+0xa>
   110ef:	89 fa                	mov    %edi,%edx
   110f1:	0f af d0             	imul   %eax,%edx
   110f4:	81 fa e0 0f 00 00    	cmp    $0xfe0,%edx
   110fa:	76 12                	jbe    1110e <array_realloc+0x2f>
   110fc:	8d 84 3a 1f 10 00 00 	lea    0x101f(%rdx,%rdi,1),%eax
   11103:	25 00 f0 ff ff       	and    $0xfffff000,%eax
   11108:	83 e8 20             	sub    $0x20,%eax
   1110b:	99                   	cltd   
   1110c:	f7 ff                	idiv   %edi
   1110e:	89 06                	mov    %eax,(%rsi)
   11110:	0f af c7             	imul   %edi,%eax
   11113:	4c 89 c7             	mov    %r8,%rdi
   11116:	48 63 f0             	movslq %eax,%rsi
   11119:	e9 02 65 01 00       	jmpq   27620 <ev_realloc>

000000000001111e <fd_rearm_all>:
   1111e:	41 55                	push   %r13
   11120:	41 54                	push   %r12
   11122:	4c 8d a7 50 02 00 00 	lea    0x250(%rdi),%r12
   11129:	55                   	push   %rbp
   1112a:	31 ed                	xor    %ebp,%ebp
   1112c:	53                   	push   %rbx
   1112d:	48 89 fb             	mov    %rdi,%rbx
   11130:	52                   	push   %rdx
   11131:	41 89 ed             	mov    %ebp,%r13d
   11134:	39 ab e8 00 00 00    	cmp    %ebp,0xe8(%rbx)
   1113a:	7e 75                	jle    111b1 <fd_rearm_all+0x93>
   1113c:	48 89 e8             	mov    %rbp,%rax
   1113f:	48 c1 e0 04          	shl    $0x4,%rax
   11143:	48 03 83 e0 00 00 00 	add    0xe0(%rbx),%rax
   1114a:	80 78 08 00          	cmpb   $0x0,0x8(%rax)
   1114e:	74 5c                	je     111ac <fd_rearm_all+0x8e>
   11150:	8a 50 09             	mov    0x9(%rax),%dl
   11153:	c6 40 08 00          	movb   $0x0,0x8(%rax)
   11157:	c6 40 0a 00          	movb   $0x0,0xa(%rax)
   1115b:	89 d1                	mov    %edx,%ecx
   1115d:	83 c9 81             	or     $0xffffff81,%ecx
   11160:	88 48 09             	mov    %cl,0x9(%rax)
   11163:	84 d2                	test   %dl,%dl
   11165:	75 45                	jne    111ac <fd_rearm_all+0x8e>
   11167:	8b 83 54 02 00 00    	mov    0x254(%rbx),%eax
   1116d:	48 8b b3 48 02 00 00 	mov    0x248(%rbx),%rsi
   11174:	8d 48 01             	lea    0x1(%rax),%ecx
   11177:	89 8b 54 02 00 00    	mov    %ecx,0x254(%rbx)
   1117d:	3b 8b 50 02 00 00    	cmp    0x250(%rbx),%ecx
   11183:	7e 14                	jle    11199 <fd_rearm_all+0x7b>
   11185:	4c 89 e2             	mov    %r12,%rdx
   11188:	bf 04 00 00 00       	mov    $0x4,%edi
   1118d:	e8 4d ff ff ff       	callq  110df <array_realloc>
   11192:	48 89 83 48 02 00 00 	mov    %rax,0x248(%rbx)
   11199:	48 63 93 54 02 00 00 	movslq 0x254(%rbx),%rdx
   111a0:	48 8b 83 48 02 00 00 	mov    0x248(%rbx),%rax
   111a7:	44 89 6c 90 fc       	mov    %r13d,-0x4(%rax,%rdx,4)
   111ac:	48 ff c5             	inc    %rbp
   111af:	eb 80                	jmp    11131 <fd_rearm_all+0x13>
   111b1:	58                   	pop    %rax
   111b2:	5b                   	pop    %rbx
   111b3:	5d                   	pop    %rbp
   111b4:	41 5c                	pop    %r12
   111b6:	41 5d                	pop    %r13
   111b8:	c3                   	retq   

00000000000111b9 <poll_modify.cold.22>:
   111b9:	8d 4e 01             	lea    0x1(%rsi),%ecx
   111bc:	48 8d 97 78 01 00 00 	lea    0x178(%rdi),%rdx
   111c3:	48 89 c6             	mov    %rax,%rsi
   111c6:	bf 04 00 00 00       	mov    $0x4,%edi
   111cb:	e8 0f ff ff ff       	callq  110df <array_realloc>
   111d0:	8b 8b 78 01 00 00    	mov    0x178(%rbx),%ecx
   111d6:	49 63 d5             	movslq %r13d,%rdx
   111d9:	48 89 83 70 01 00 00 	mov    %rax,0x170(%rbx)
   111e0:	48 8d 34 90          	lea    (%rax,%rdx,4),%rsi
   111e4:	31 d2                	xor    %edx,%edx
   111e6:	44 29 e9             	sub    %r13d,%ecx
   111e9:	48 39 d1             	cmp    %rdx,%rcx
   111ec:	0f 84 81 64 01 00    	je     27673 <poll_modify+0x33>
   111f2:	c7 04 96 ff ff ff ff 	movl   $0xffffffff,(%rsi,%rdx,4)
   111f9:	48 83 c2 01          	add    $0x1,%rdx
   111fd:	eb ea                	jmp    111e9 <poll_modify.cold.22+0x30>
   111ff:	48 8d 93 68 01 00 00 	lea    0x168(%rbx),%rdx
   11206:	48 89 c6             	mov    %rax,%rsi
   11209:	bf 08 00 00 00       	mov    $0x8,%edi
   1120e:	e8 cc fe ff ff       	callq  110df <array_realloc>
   11213:	48 89 83 60 01 00 00 	mov    %rax,0x160(%rbx)
   1121a:	e9 c7 64 01 00       	jmpq   276e6 <poll_modify+0xa6>

000000000001121f <epoll_epoll_create>:
   1121f:	53                   	push   %rbx
   11220:	bf 00 00 08 00       	mov    $0x80000,%edi
   11225:	e8 26 f8 ff ff       	callq  10a50 <epoll_create1@plt>
   1122a:	89 c3                	mov    %eax,%ebx
   1122c:	85 c0                	test   %eax,%eax
   1122e:	79 32                	jns    11262 <epoll_epoll_create+0x43>
   11230:	e8 db e8 ff ff       	callq  fb10 <__errno_location@plt>
   11235:	8b 00                	mov    (%rax),%eax
   11237:	83 e8 16             	sub    $0x16,%eax
   1123a:	83 e0 ef             	and    $0xffffffef,%eax
   1123d:	75 23                	jne    11262 <epoll_epoll_create+0x43>
   1123f:	bf 00 01 00 00       	mov    $0x100,%edi
   11244:	e8 97 f6 ff ff       	callq  108e0 <epoll_create@plt>
   11249:	89 c3                	mov    %eax,%ebx
   1124b:	85 c0                	test   %eax,%eax
   1124d:	78 13                	js     11262 <epoll_epoll_create+0x43>
   1124f:	89 c7                	mov    %eax,%edi
   11251:	ba 01 00 00 00       	mov    $0x1,%edx
   11256:	be 02 00 00 00       	mov    $0x2,%esi
   1125b:	31 c0                	xor    %eax,%eax
   1125d:	e8 5e ea ff ff       	callq  fcc0 <fcntl@plt>
   11262:	89 d8                	mov    %ebx,%eax
   11264:	5b                   	pop    %rbx
   11265:	c3                   	retq   

0000000000011266 <epoll_init.isra.9>:
   11266:	53                   	push   %rbx
   11267:	48 89 fb             	mov    %rdi,%rbx
   1126a:	e8 b0 ff ff ff       	callq  1121f <epoll_epoll_create>
   1126f:	31 d2                	xor    %edx,%edx
   11271:	89 83 c4 00 00 00    	mov    %eax,0xc4(%rbx)
   11277:	85 c0                	test   %eax,%eax
   11279:	78 4c                	js     112c7 <epoll_init.isra.9+0x61>
   1127b:	48 8b 05 3e e2 02 00 	mov    0x2e23e(%rip),%rax        # 3f4c0 <f58_prefix+0x5d>
   11282:	be 00 03 00 00       	mov    $0x300,%esi
   11287:	31 ff                	xor    %edi,%edi
   11289:	c7 83 88 01 00 00 40 	movl   $0x40,0x188(%rbx)
   11290:	00 00 00 
   11293:	48 89 83 c8 00 00 00 	mov    %rax,0xc8(%rbx)
   1129a:	48 8d 05 af 7e 01 00 	lea    0x17eaf(%rip),%rax        # 29150 <epoll_modify>
   112a1:	48 89 83 d0 00 00 00 	mov    %rax,0xd0(%rbx)
   112a8:	48 8d 05 a1 6a 01 00 	lea    0x16aa1(%rip),%rax        # 27d50 <epoll_poll>
   112af:	48 89 83 d8 00 00 00 	mov    %rax,0xd8(%rbx)
   112b6:	e8 65 63 01 00       	callq  27620 <ev_realloc>
   112bb:	ba 04 00 00 00       	mov    $0x4,%edx
   112c0:	48 89 83 80 01 00 00 	mov    %rax,0x180(%rbx)
   112c7:	89 d0                	mov    %edx,%eax
   112c9:	5b                   	pop    %rbx
   112ca:	c3                   	retq   

00000000000112cb <ev_set_syserr_cb>:
   112cb:	f3 0f 1e fa          	endbr64 
   112cf:	48 89 3d 32 6e 24 00 	mov    %rdi,0x246e32(%rip)        # 258108 <syserr_cb>
   112d6:	c3                   	retq   

00000000000112d7 <ev_set_allocator>:
   112d7:	f3 0f 1e fa          	endbr64 
   112db:	48 89 3d b6 50 24 00 	mov    %rdi,0x2450b6(%rip)        # 256398 <alloc>
   112e2:	c3                   	retq   

00000000000112e3 <ev_feed_event.cold.23>:
   112e3:	48 63 ff             	movslq %edi,%rdi
   112e6:	48 8d 54 bd 58       	lea    0x58(%rbp,%rdi,4),%rdx
   112eb:	bf 10 00 00 00       	mov    $0x10,%edi
   112f0:	e8 ea fd ff ff       	callq  110df <array_realloc>
   112f5:	8b 4b 04             	mov    0x4(%rbx),%ecx
   112f8:	48 89 c6             	mov    %rax,%rsi
   112fb:	49 89 45 40          	mov    %rax,0x40(%r13)
   112ff:	e9 84 68 01 00       	jmpq   27b88 <ev_feed_event+0x48>

0000000000011304 <epoll_poll.cold.24>:
   11304:	48 83 c4 18          	add    $0x18,%rsp
   11308:	48 8d 3d 83 0f 03 00 	lea    0x30f83(%rip),%rdi        # 42292 <__FUNCTION__.3752+0x52>
   1130f:	5b                   	pop    %rbx
   11310:	5d                   	pop    %rbp
   11311:	41 5c                	pop    %r12
   11313:	41 5d                	pop    %r13
   11315:	41 5e                	pop    %r14
   11317:	41 5f                	pop    %r15
   11319:	e9 a6 fa ff ff       	jmpq   10dc4 <ev_syserr>

000000000001131e <ev_version_major>:
   1131e:	f3 0f 1e fa          	endbr64 
   11322:	b8 04 00 00 00       	mov    $0x4,%eax
   11327:	c3                   	retq   

0000000000011328 <ev_version_minor>:
   11328:	f3 0f 1e fa          	endbr64 
   1132c:	b8 21 00 00 00       	mov    $0x21,%eax
   11331:	c3                   	retq   

0000000000011332 <ev_supported_backends>:
   11332:	f3 0f 1e fa          	endbr64 
   11336:	50                   	push   %rax
   11337:	e8 74 f8 ff ff       	callq  10bb0 <ev_linux_version>
   1133c:	5a                   	pop    %rdx
   1133d:	3d 01 06 05 00       	cmp    $0x50601,%eax
   11342:	19 c0                	sbb    %eax,%eax
   11344:	83 e0 80             	and    $0xffffff80,%eax
   11347:	05 84 00 00 00       	add    $0x84,%eax
   1134c:	83 c8 03             	or     $0x3,%eax
   1134f:	c3                   	retq   

0000000000011350 <ev_recommended_backends>:
   11350:	f3 0f 1e fa          	endbr64 
   11354:	50                   	push   %rax
   11355:	e8 d8 ff ff ff       	callq  11332 <ev_supported_backends>
   1135a:	5a                   	pop    %rdx
   1135b:	24 37                	and    $0x37,%al
   1135d:	c3                   	retq   

000000000001135e <ev_embeddable_backends>:
   1135e:	f3 0f 1e fa          	endbr64 
   11362:	50                   	push   %rax
   11363:	e8 48 f8 ff ff       	callq  10bb0 <ev_linux_version>
   11368:	5a                   	pop    %rdx
   11369:	3d 20 06 02 00       	cmp    $0x20620,%eax
   1136e:	19 c0                	sbb    %eax,%eax
   11370:	83 e0 fc             	and    $0xfffffffc,%eax
   11373:	05 ac 00 00 00       	add    $0xac,%eax
   11378:	c3                   	retq   

0000000000011379 <ev_verify>:
   11379:	f3 0f 1e fa          	endbr64 
   1137d:	41 57                	push   %r15
   1137f:	41 56                	push   %r14
   11381:	41 55                	push   %r13
   11383:	41 54                	push   %r12
   11385:	55                   	push   %rbp
   11386:	53                   	push   %rbx
   11387:	48 83 ec 18          	sub    $0x18,%rsp
   1138b:	83 bf bc 00 00 00 ff 	cmpl   $0xffffffff,0xbc(%rdi)
   11392:	7d 1f                	jge    113b3 <ev_verify+0x3a>
   11394:	48 8d 0d 2d 1d 03 00 	lea    0x31d2d(%rip),%rcx        # 430c8 <__PRETTY_FUNCTION__.11238>
   1139b:	ba 1f 0e 00 00       	mov    $0xe1f,%edx
   113a0:	48 8d 35 ba 0e 03 00 	lea    0x30eba(%rip),%rsi        # 42261 <__FUNCTION__.3752+0x21>
   113a7:	48 8d 3d f7 0e 03 00 	lea    0x30ef7(%rip),%rdi        # 422a5 <__FUNCTION__.3752+0x65>
   113ae:	e8 4d ec ff ff       	callq  10000 <__assert_fail@plt>
   113b3:	48 89 fb             	mov    %rdi,%rbx
   113b6:	8b 97 54 02 00 00    	mov    0x254(%rdi),%edx
   113bc:	31 c0                	xor    %eax,%eax
   113be:	39 97 50 02 00 00    	cmp    %edx,0x250(%rdi)
   113c4:	7d 1f                	jge    113e5 <ev_verify+0x6c>
   113c6:	48 8d 0d fb 1c 03 00 	lea    0x31cfb(%rip),%rcx        # 430c8 <__PRETTY_FUNCTION__.11238>
   113cd:	ba 21 0e 00 00       	mov    $0xe21,%edx
   113d2:	48 8d 35 88 0e 03 00 	lea    0x30e88(%rip),%rsi        # 42261 <__FUNCTION__.3752+0x21>
   113d9:	48 8d 3d d5 0e 03 00 	lea    0x30ed5(%rip),%rdi        # 422b5 <__FUNCTION__.3752+0x75>
   113e0:	e8 1b ec ff ff       	callq  10000 <__assert_fail@plt>
   113e5:	39 c2                	cmp    %eax,%edx
   113e7:	7e 30                	jle    11419 <ev_verify+0xa0>
   113e9:	48 8b 8b 48 02 00 00 	mov    0x248(%rbx),%rcx
   113f0:	8b 0c 81             	mov    (%rcx,%rax,4),%ecx
   113f3:	48 ff c0             	inc    %rax
   113f6:	85 c9                	test   %ecx,%ecx
   113f8:	79 eb                	jns    113e5 <ev_verify+0x6c>
   113fa:	48 8d 0d c7 1c 03 00 	lea    0x31cc7(%rip),%rcx        # 430c8 <__PRETTY_FUNCTION__.11238>
   11401:	ba 23 0e 00 00       	mov    $0xe23,%edx
   11406:	48 8d 35 54 0e 03 00 	lea    0x30e54(%rip),%rsi        # 42261 <__FUNCTION__.3752+0x21>
   1140d:	48 8d 3d bc 12 03 00 	lea    0x312bc(%rip),%rdi        # 426d0 <__FUNCTION__.3752+0x490>
   11414:	e8 e7 eb ff ff       	callq  10000 <__assert_fail@plt>
   11419:	44 8b bb e8 00 00 00 	mov    0xe8(%rbx),%r15d
   11420:	45 31 e4             	xor    %r12d,%r12d
   11423:	45 85 ff             	test   %r15d,%r15d
   11426:	79 2e                	jns    11456 <ev_verify+0xdd>
   11428:	48 8d 0d 99 1c 03 00 	lea    0x31c99(%rip),%rcx        # 430c8 <__PRETTY_FUNCTION__.11238>
   1142f:	ba 25 0e 00 00       	mov    $0xe25,%edx
   11434:	48 8d 35 26 0e 03 00 	lea    0x30e26(%rip),%rsi        # 42261 <__FUNCTION__.3752+0x21>
   1143b:	48 8d 3d 8e 0e 03 00 	lea    0x30e8e(%rip),%rdi        # 422d0 <__FUNCTION__.3752+0x90>
   11442:	e8 b9 eb ff ff       	callq  10000 <__assert_fail@plt>
   11447:	48 8b 6d 20          	mov    0x20(%rbp),%rbp
   1144b:	41 89 c6             	mov    %eax,%r14d
   1144e:	48 85 ed             	test   %rbp,%rbp
   11451:	75 28                	jne    1147b <ev_verify+0x102>
   11453:	49 ff c4             	inc    %r12
   11456:	44 89 e2             	mov    %r12d,%edx
   11459:	45 39 e7             	cmp    %r12d,%r15d
   1145c:	0f 8e ab 00 00 00    	jle    1150d <ev_verify+0x194>
   11462:	4c 89 e0             	mov    %r12,%rax
   11465:	45 31 f6             	xor    %r14d,%r14d
   11468:	48 c1 e0 04          	shl    $0x4,%rax
   1146c:	48 03 83 e0 00 00 00 	add    0xe0(%rbx),%rax
   11473:	4c 8b 28             	mov    (%rax),%r13
   11476:	4c 89 ed             	mov    %r13,%rbp
   11479:	eb d3                	jmp    1144e <ev_verify+0xd5>
   1147b:	48 89 ee             	mov    %rbp,%rsi
   1147e:	48 89 df             	mov    %rbx,%rdi
   11481:	89 54 24 0c          	mov    %edx,0xc(%rsp)
   11485:	e8 b3 f7 ff ff       	callq  10c3d <verify_watcher>
   1148a:	41 8d 46 01          	lea    0x1(%r14),%eax
   1148e:	41 80 e6 01          	and    $0x1,%r14b
   11492:	8b 54 24 0c          	mov    0xc(%rsp),%edx
   11496:	74 28                	je     114c0 <ev_verify+0x147>
   11498:	4c 39 ed             	cmp    %r13,%rbp
   1149b:	75 1f                	jne    114bc <ev_verify+0x143>
   1149d:	48 8d 0d 24 1c 03 00 	lea    0x31c24(%rip),%rcx        # 430c8 <__PRETTY_FUNCTION__.11238>
   114a4:	ba 30 0e 00 00       	mov    $0xe30,%edx
   114a9:	48 8d 35 b1 0d 03 00 	lea    0x30db1(%rip),%rsi        # 42261 <__FUNCTION__.3752+0x21>
   114b0:	48 8d 3d 51 12 03 00 	lea    0x31251(%rip),%rdi        # 42708 <__FUNCTION__.3752+0x4c8>
   114b7:	e8 44 eb ff ff       	callq  10000 <__assert_fail@plt>
   114bc:	4d 8b 6d 20          	mov    0x20(%r13),%r13
   114c0:	83 7d 00 01          	cmpl   $0x1,0x0(%rbp)
   114c4:	74 1f                	je     114e5 <ev_verify+0x16c>
   114c6:	48 8d 0d fb 1b 03 00 	lea    0x31bfb(%rip),%rcx        # 430c8 <__PRETTY_FUNCTION__.11238>
   114cd:	ba 34 0e 00 00       	mov    $0xe34,%edx
   114d2:	48 8d 35 88 0d 03 00 	lea    0x30d88(%rip),%rsi        # 42261 <__FUNCTION__.3752+0x21>
   114d9:	48 8d 3d 60 12 03 00 	lea    0x31260(%rip),%rdi        # 42740 <__FUNCTION__.3752+0x500>
   114e0:	e8 1b eb ff ff       	callq  10000 <__assert_fail@plt>
   114e5:	39 55 28             	cmp    %edx,0x28(%rbp)
   114e8:	0f 84 59 ff ff ff    	je     11447 <ev_verify+0xce>
   114ee:	48 8d 0d d3 1b 03 00 	lea    0x31bd3(%rip),%rcx        # 430c8 <__PRETTY_FUNCTION__.11238>
   114f5:	ba 35 0e 00 00       	mov    $0xe35,%edx
   114fa:	48 8d 35 60 0d 03 00 	lea    0x30d60(%rip),%rsi        # 42261 <__FUNCTION__.3752+0x21>
   11501:	48 8d 3d 78 12 03 00 	lea    0x31278(%rip),%rdi        # 42780 <__FUNCTION__.3752+0x540>
   11508:	e8 f3 ea ff ff       	callq  10000 <__assert_fail@plt>
   1150d:	8b 93 64 02 00 00    	mov    0x264(%rbx),%edx
   11513:	39 93 60 02 00 00    	cmp    %edx,0x260(%rbx)
   11519:	7d 1f                	jge    1153a <ev_verify+0x1c1>
   1151b:	48 8d 0d a6 1b 03 00 	lea    0x31ba6(%rip),%rcx        # 430c8 <__PRETTY_FUNCTION__.11238>
   11522:	ba 39 0e 00 00       	mov    $0xe39,%edx
   11527:	48 8d 35 33 0d 03 00 	lea    0x30d33(%rip),%rsi        # 42261 <__FUNCTION__.3752+0x21>
   1152e:	48 8d 3d a8 0d 03 00 	lea    0x30da8(%rip),%rdi        # 422dd <__FUNCTION__.3752+0x9d>
   11535:	e8 c6 ea ff ff       	callq  10000 <__assert_fail@plt>
   1153a:	48 8b b3 58 02 00 00 	mov    0x258(%rbx),%rsi
   11541:	48 89 df             	mov    %rbx,%rdi
   11544:	e8 5a f7 ff ff       	callq  10ca3 <verify_heap>
   11549:	8b 93 74 02 00 00    	mov    0x274(%rbx),%edx
   1154f:	39 93 70 02 00 00    	cmp    %edx,0x270(%rbx)
   11555:	7d 1f                	jge    11576 <ev_verify+0x1fd>
   11557:	48 8d 0d 6a 1b 03 00 	lea    0x31b6a(%rip),%rcx        # 430c8 <__PRETTY_FUNCTION__.11238>
   1155e:	ba 3d 0e 00 00       	mov    $0xe3d,%edx
   11563:	48 8d 35 f7 0c 03 00 	lea    0x30cf7(%rip),%rsi        # 42261 <__FUNCTION__.3752+0x21>
   1156a:	48 8d 3d 81 0d 03 00 	lea    0x30d81(%rip),%rdi        # 422f2 <__FUNCTION__.3752+0xb2>
   11571:	e8 8a ea ff ff       	callq  10000 <__assert_fail@plt>
   11576:	48 8b b3 68 02 00 00 	mov    0x268(%rbx),%rsi
   1157d:	48 89 df             	mov    %rbx,%rdi
   11580:	31 ed                	xor    %ebp,%ebp
   11582:	e8 1c f7 ff ff       	callq  10ca3 <verify_heap>
   11587:	8b 44 2b 7c          	mov    0x7c(%rbx,%rbp,1),%eax
   1158b:	39 44 2b 68          	cmp    %eax,0x68(%rbx,%rbp,1)
   1158f:	7d 1f                	jge    115b0 <ev_verify+0x237>
   11591:	48 8d 0d 30 1b 03 00 	lea    0x31b30(%rip),%rcx        # 430c8 <__PRETTY_FUNCTION__.11238>
   11598:	ba 43 0e 00 00       	mov    $0xe43,%edx
   1159d:	48 8d 35 bd 0c 03 00 	lea    0x30cbd(%rip),%rsi        # 42261 <__FUNCTION__.3752+0x21>
   115a4:	48 8d 3d 1d 12 03 00 	lea    0x3121d(%rip),%rdi        # 427c8 <__FUNCTION__.3752+0x588>
   115ab:	e8 50 ea ff ff       	callq  10000 <__assert_fail@plt>
   115b0:	83 bb c8 02 00 00 00 	cmpl   $0x0,0x2c8(%rbx)
   115b7:	79 1f                	jns    115d8 <ev_verify+0x25f>
   115b9:	48 8d 0d 08 1b 03 00 	lea    0x31b08(%rip),%rcx        # 430c8 <__PRETTY_FUNCTION__.11238>
   115c0:	ba 45 0e 00 00       	mov    $0xe45,%edx
   115c5:	48 8d 35 95 0c 03 00 	lea    0x30c95(%rip),%rsi        # 42261 <__FUNCTION__.3752+0x21>
   115cc:	48 8d 3d 3a 0d 03 00 	lea    0x30d3a(%rip),%rdi        # 4230d <__FUNCTION__.3752+0xcd>
   115d3:	e8 28 ea ff ff       	callq  10000 <__assert_fail@plt>
   115d8:	8b 84 2b b0 02 00 00 	mov    0x2b0(%rbx,%rbp,1),%eax
   115df:	48 83 ed 04          	sub    $0x4,%rbp
   115e3:	8b 94 2b c8 02 00 00 	mov    0x2c8(%rbx,%rbp,1),%edx
   115ea:	39 d0                	cmp    %edx,%eax
   115ec:	7d 1f                	jge    1160d <ev_verify+0x294>
   115ee:	48 8d 0d d3 1a 03 00 	lea    0x31ad3(%rip),%rcx        # 430c8 <__PRETTY_FUNCTION__.11238>
   115f5:	ba 46 0e 00 00       	mov    $0xe46,%edx
   115fa:	48 8d 35 60 0c 03 00 	lea    0x30c60(%rip),%rsi        # 42261 <__FUNCTION__.3752+0x21>
   11601:	48 8d 3d 12 0d 03 00 	lea    0x30d12(%rip),%rdi        # 4231a <__FUNCTION__.3752+0xda>
   11608:	e8 f3 e9 ff ff       	callq  10000 <__assert_fail@plt>
   1160d:	48 8b b4 6b a0 02 00 	mov    0x2a0(%rbx,%rbp,2),%rsi
   11614:	00 
   11615:	48 89 df             	mov    %rbx,%rdi
   11618:	e8 5c f7 ff ff       	callq  10d79 <array_verify>
   1161d:	48 83 fd ec          	cmp    $0xffffffffffffffec,%rbp
   11621:	0f 85 60 ff ff ff    	jne    11587 <ev_verify+0x20e>
   11627:	8b 93 fc 02 00 00    	mov    0x2fc(%rbx),%edx
   1162d:	39 93 f8 02 00 00    	cmp    %edx,0x2f8(%rbx)
   11633:	7d 1f                	jge    11654 <ev_verify+0x2db>
   11635:	48 8d 0d 8c 1a 03 00 	lea    0x31a8c(%rip),%rcx        # 430c8 <__PRETTY_FUNCTION__.11238>
   1163c:	ba 4c 0e 00 00       	mov    $0xe4c,%edx
   11641:	48 8d 35 19 0c 03 00 	lea    0x30c19(%rip),%rsi        # 42261 <__FUNCTION__.3752+0x21>
   11648:	48 8d 3d e6 0c 03 00 	lea    0x30ce6(%rip),%rdi        # 42335 <__FUNCTION__.3752+0xf5>
   1164f:	e8 ac e9 ff ff       	callq  10000 <__assert_fail@plt>
   11654:	48 8b b3 f0 02 00 00 	mov    0x2f0(%rbx),%rsi
   1165b:	48 89 df             	mov    %rbx,%rdi
   1165e:	e8 16 f7 ff ff       	callq  10d79 <array_verify>
   11663:	8b 93 0c 03 00 00    	mov    0x30c(%rbx),%edx
   11669:	39 93 08 03 00 00    	cmp    %edx,0x308(%rbx)
   1166f:	7d 1f                	jge    11690 <ev_verify+0x317>
   11671:	48 8d 0d 50 1a 03 00 	lea    0x31a50(%rip),%rcx        # 430c8 <__PRETTY_FUNCTION__.11238>
   11678:	ba 51 0e 00 00       	mov    $0xe51,%edx
   1167d:	48 8d 35 dd 0b 03 00 	lea    0x30bdd(%rip),%rsi        # 42261 <__FUNCTION__.3752+0x21>
   11684:	48 8d 3d bd 0c 03 00 	lea    0x30cbd(%rip),%rdi        # 42348 <__FUNCTION__.3752+0x108>
   1168b:	e8 70 e9 ff ff       	callq  10000 <__assert_fail@plt>
   11690:	48 8b b3 00 03 00 00 	mov    0x300(%rbx),%rsi
   11697:	48 89 df             	mov    %rbx,%rdi
   1169a:	e8 da f6 ff ff       	callq  10d79 <array_verify>
   1169f:	8b 93 24 03 00 00    	mov    0x324(%rbx),%edx
   116a5:	39 93 20 03 00 00    	cmp    %edx,0x320(%rbx)
   116ab:	7d 1f                	jge    116cc <ev_verify+0x353>
   116ad:	48 8d 0d 14 1a 03 00 	lea    0x31a14(%rip),%rcx        # 430c8 <__PRETTY_FUNCTION__.11238>
   116b4:	ba 56 0e 00 00       	mov    $0xe56,%edx
   116b9:	48 8d 35 a1 0b 03 00 	lea    0x30ba1(%rip),%rsi        # 42261 <__FUNCTION__.3752+0x21>
   116c0:	48 8d 3d 9a 0c 03 00 	lea    0x30c9a(%rip),%rdi        # 42361 <__FUNCTION__.3752+0x121>
   116c7:	e8 34 e9 ff ff       	callq  10000 <__assert_fail@plt>
   116cc:	48 8b b3 18 03 00 00 	mov    0x318(%rbx),%rsi
   116d3:	48 89 df             	mov    %rbx,%rdi
   116d6:	e8 9e f6 ff ff       	callq  10d79 <array_verify>
   116db:	8b 93 dc 02 00 00    	mov    0x2dc(%rbx),%edx
   116e1:	39 93 d8 02 00 00    	cmp    %edx,0x2d8(%rbx)
   116e7:	7d 1f                	jge    11708 <ev_verify+0x38f>
   116e9:	48 8d 0d d8 19 03 00 	lea    0x319d8(%rip),%rcx        # 430c8 <__PRETTY_FUNCTION__.11238>
   116f0:	ba 5b 0e 00 00       	mov    $0xe5b,%edx
   116f5:	48 8d 35 65 0b 03 00 	lea    0x30b65(%rip),%rsi        # 42261 <__FUNCTION__.3752+0x21>
   116fc:	48 8d 3d 73 0c 03 00 	lea    0x30c73(%rip),%rdi        # 42376 <__FUNCTION__.3752+0x136>
   11703:	e8 f8 e8 ff ff       	callq  10000 <__assert_fail@plt>
   11708:	48 8b b3 d0 02 00 00 	mov    0x2d0(%rbx),%rsi
   1170f:	48 89 df             	mov    %rbx,%rdi
   11712:	e8 62 f6 ff ff       	callq  10d79 <array_verify>
   11717:	8b 93 ec 02 00 00    	mov    0x2ec(%rbx),%edx
   1171d:	39 93 e8 02 00 00    	cmp    %edx,0x2e8(%rbx)
   11723:	7d 1f                	jge    11744 <ev_verify+0x3cb>
   11725:	48 8d 0d 9c 19 03 00 	lea    0x3199c(%rip),%rcx        # 430c8 <__PRETTY_FUNCTION__.11238>
   1172c:	ba 60 0e 00 00       	mov    $0xe60,%edx
   11731:	48 8d 35 29 0b 03 00 	lea    0x30b29(%rip),%rsi        # 42261 <__FUNCTION__.3752+0x21>
   11738:	48 8d 3d 50 0c 03 00 	lea    0x30c50(%rip),%rdi        # 4238f <__FUNCTION__.3752+0x14f>
   1173f:	e8 bc e8 ff ff       	callq  10000 <__assert_fail@plt>
   11744:	48 8b b3 e0 02 00 00 	mov    0x2e0(%rbx),%rsi
   1174b:	48 83 c4 18          	add    $0x18,%rsp
   1174f:	48 89 df             	mov    %rbx,%rdi
   11752:	5b                   	pop    %rbx
   11753:	5d                   	pop    %rbp
   11754:	41 5c                	pop    %r12
   11756:	41 5d                	pop    %r13
   11758:	41 5e                	pop    %r14
   1175a:	41 5f                	pop    %r15
   1175c:	e9 18 f6 ff ff       	jmpq   10d79 <array_verify>

0000000000011761 <ev_now_update.cold.25>:
   11761:	48 89 df             	mov    %rbx,%rdi
   11764:	e8 7f f8 ff ff       	callq  10fe8 <periodics_reschedule>
   11769:	e9 ee 6e 01 00       	jmpq   2865c <ev_now_update+0x9c>

000000000001176e <ev_io_start.cold.26>:
   1176e:	48 8b b5 e0 00 00 00 	mov    0xe0(%rbp),%rsi
   11775:	41 8d 4c 24 01       	lea    0x1(%r12),%ecx
   1177a:	bf 10 00 00 00       	mov    $0x10,%edi
   1177f:	48 8d 95 e8 00 00 00 	lea    0xe8(%rbp),%rdx
   11786:	e8 54 f9 ff ff       	callq  110df <array_realloc>
   1178b:	8b 95 e8 00 00 00    	mov    0xe8(%rbp),%edx
   11791:	49 63 cd             	movslq %r13d,%rcx
    {
      __warn_memset_zero_len ();
      return __dest;
    }
#endif
  return __builtin___memset_chk (__dest, __ch, __len,
   11794:	31 f6                	xor    %esi,%esi
   11796:	48 89 85 e0 00 00 00 	mov    %rax,0xe0(%rbp)
   1179d:	48 c1 e1 04          	shl    $0x4,%rcx
   117a1:	44 29 ea             	sub    %r13d,%edx
   117a4:	48 8d 3c 08          	lea    (%rax,%rcx,1),%rdi
   117a8:	48 63 d2             	movslq %edx,%rdx
   117ab:	48 c1 e2 04          	shl    $0x4,%rdx
   117af:	e8 7c e8 ff ff       	callq  10030 <memset@plt>
   117b4:	e9 16 71 01 00       	jmpq   288cf <ev_io_start+0x6f>
   117b9:	48 8d 95 50 02 00 00 	lea    0x250(%rbp),%rdx
   117c0:	48 89 c6             	mov    %rax,%rsi
   117c3:	bf 04 00 00 00       	mov    $0x4,%edi
   117c8:	e8 12 f9 ff ff       	callq  110df <array_realloc>
   117cd:	8b 8d 54 02 00 00    	mov    0x254(%rbp),%ecx
   117d3:	48 89 85 48 02 00 00 	mov    %rax,0x248(%rbp)
   117da:	e9 50 71 01 00       	jmpq   2892f <ev_io_start+0xcf>

00000000000117df <evtimerfd_init>:
   117df:	83 bf a8 04 00 00 00 	cmpl   $0x0,0x4a8(%rdi)
   117e6:	0f 85 80 00 00 00    	jne    1186c <evtimerfd_init+0x8d>
   117ec:	53                   	push   %rbx
   117ed:	be 00 08 08 00       	mov    $0x80800,%esi
   117f2:	48 89 fb             	mov    %rdi,%rbx
   117f5:	31 ff                	xor    %edi,%edi
   117f7:	e8 d4 ea ff ff       	callq  102d0 <timerfd_create@plt>
   117fc:	89 83 a0 04 00 00    	mov    %eax,0x4a0(%rbx)
   11802:	85 c0                	test   %eax,%eax
   11804:	78 64                	js     1186a <evtimerfd_init+0x8b>
   11806:	89 c7                	mov    %eax,%edi
   11808:	e8 d3 5c 01 00       	callq  274e0 <fd_intern>
   1180d:	48 8d 05 2c 62 01 00 	lea    0x1622c(%rip),%rax        # 27a40 <timerfdcb>
   11814:	48 8d b3 a8 04 00 00 	lea    0x4a8(%rbx),%rsi
   1181b:	48 89 df             	mov    %rbx,%rdi
   1181e:	48 89 83 c0 04 00 00 	mov    %rax,0x4c0(%rbx)
   11825:	8b 83 a0 04 00 00    	mov    0x4a0(%rbx),%eax
   1182b:	c7 83 d4 04 00 00 81 	movl   $0x81,0x4d4(%rbx)
   11832:	00 00 00 
   11835:	89 83 d0 04 00 00    	mov    %eax,0x4d0(%rbx)
   1183b:	48 c7 83 a8 04 00 00 	movq   $0x0,0x4a8(%rbx)
   11842:	00 00 00 00 
   11846:	c7 83 b0 04 00 00 fe 	movl   $0xfffffffe,0x4b0(%rbx)
   1184d:	ff ff ff 
   11850:	e8 0b 70 01 00       	callq  28860 <ev_io_start>
   11855:	48 89 df             	mov    %rbx,%rdi
   11858:	e8 53 6d 01 00       	callq  285b0 <ev_unref>
   1185d:	48 89 df             	mov    %rbx,%rdi
   11860:	31 d2                	xor    %edx,%edx
   11862:	31 f6                	xor    %esi,%esi
   11864:	5b                   	pop    %rbx
   11865:	e9 d6 61 01 00       	jmpq   27a40 <timerfdcb>
   1186a:	5b                   	pop    %rbx
   1186b:	c3                   	retq   
   1186c:	c3                   	retq   

000000000001186d <evpipe_init>:
   1186d:	55                   	push   %rbp
   1186e:	53                   	push   %rbx
   1186f:	48 83 ec 18          	sub    $0x18,%rsp
   11873:	64 48 8b 04 25 28 00 	mov    %fs:0x28,%rax
   1187a:	00 00 
   1187c:	48 89 44 24 08       	mov    %rax,0x8(%rsp)
   11881:	31 c0                	xor    %eax,%eax
   11883:	83 bf f8 00 00 00 00 	cmpl   $0x0,0xf8(%rdi)
   1188a:	0f 85 cd 00 00 00    	jne    1195d <evpipe_init+0xf0>
   11890:	48 89 fb             	mov    %rdi,%rbx
   11893:	be 00 08 08 00       	mov    $0x80800,%esi
   11898:	31 ff                	xor    %edi,%edi
   1189a:	c7 04 24 ff ff ff ff 	movl   $0xffffffff,(%rsp)
   118a1:	e8 9a f0 ff ff       	callq  10940 <eventfd@plt>
   118a6:	89 44 24 04          	mov    %eax,0x4(%rsp)
   118aa:	85 c0                	test   %eax,%eax
   118ac:	79 40                	jns    118ee <evpipe_init+0x81>
   118ae:	e8 5d e2 ff ff       	callq  fb10 <__errno_location@plt>
   118b3:	83 38 16             	cmpl   $0x16,(%rax)
   118b6:	75 11                	jne    118c9 <evpipe_init+0x5c>
   118b8:	31 f6                	xor    %esi,%esi
   118ba:	31 ff                	xor    %edi,%edi
   118bc:	e8 7f f0 ff ff       	callq  10940 <eventfd@plt>
   118c1:	89 44 24 04          	mov    %eax,0x4(%rsp)
   118c5:	85 c0                	test   %eax,%eax
   118c7:	79 25                	jns    118ee <evpipe_init+0x81>
   118c9:	48 89 e5             	mov    %rsp,%rbp
   118cc:	48 89 ef             	mov    %rbp,%rdi
   118cf:	e8 fc e7 ff ff       	callq  100d0 <pipe@plt>
   118d4:	85 c0                	test   %eax,%eax
   118d6:	74 0e                	je     118e6 <evpipe_init+0x79>
   118d8:	48 8d 3d 09 10 03 00 	lea    0x31009(%rip),%rdi        # 428e8 <__FUNCTION__.3752+0x6a8>
   118df:	e8 e0 f4 ff ff       	callq  10dc4 <ev_syserr>
   118e4:	eb e6                	jmp    118cc <evpipe_init+0x5f>
   118e6:	8b 3c 24             	mov    (%rsp),%edi
   118e9:	e8 f2 5b 01 00       	callq  274e0 <fd_intern>
   118ee:	8b 04 24             	mov    (%rsp),%eax
   118f1:	8b b3 f0 00 00 00    	mov    0xf0(%rbx),%esi
   118f7:	8b 7c 24 04          	mov    0x4(%rsp),%edi
   118fb:	89 83 ec 00 00 00    	mov    %eax,0xec(%rbx)
   11901:	85 f6                	test   %esi,%esi
   11903:	79 08                	jns    1190d <evpipe_init+0xa0>
   11905:	89 bb f0 00 00 00    	mov    %edi,0xf0(%rbx)
   1190b:	eb 0e                	jmp    1191b <evpipe_init+0xae>
   1190d:	e8 8e e5 ff ff       	callq  fea0 <dup2@plt>
   11912:	8b 7c 24 04          	mov    0x4(%rsp),%edi
   11916:	e8 95 e7 ff ff       	callq  100b0 <close@plt>
   1191b:	8b bb f0 00 00 00    	mov    0xf0(%rbx),%edi
   11921:	e8 ba 5b 01 00       	callq  274e0 <fd_intern>
   11926:	8b 83 ec 00 00 00    	mov    0xec(%rbx),%eax
   1192c:	85 c0                	test   %eax,%eax
   1192e:	79 06                	jns    11936 <evpipe_init+0xc9>
   11930:	8b 83 f0 00 00 00    	mov    0xf0(%rbx),%eax
   11936:	89 83 20 01 00 00    	mov    %eax,0x120(%rbx)
   1193c:	48 89 df             	mov    %rbx,%rdi
   1193f:	48 8d b3 f8 00 00 00 	lea    0xf8(%rbx),%rsi
   11946:	c7 83 24 01 00 00 81 	movl   $0x81,0x124(%rbx)
   1194d:	00 00 00 
   11950:	e8 0b 6f 01 00       	callq  28860 <ev_io_start>
   11955:	48 89 df             	mov    %rbx,%rdi
   11958:	e8 53 6c 01 00       	callq  285b0 <ev_unref>
   1195d:	48 8b 44 24 08       	mov    0x8(%rsp),%rax
   11962:	64 48 33 04 25 28 00 	xor    %fs:0x28,%rax
   11969:	00 00 
   1196b:	74 05                	je     11972 <evpipe_init+0x105>
   1196d:	e8 de e4 ff ff       	callq  fe50 <__stack_chk_fail@plt>
   11972:	48 83 c4 18          	add    $0x18,%rsp
   11976:	5b                   	pop    %rbx
   11977:	5d                   	pop    %rbp
   11978:	c3                   	retq   

0000000000011979 <ev_io_stop.cold.27>:
   11979:	48 8d 93 50 02 00 00 	lea    0x250(%rbx),%rdx
   11980:	48 89 c6             	mov    %rax,%rsi
   11983:	bf 04 00 00 00       	mov    $0x4,%edi
   11988:	e8 52 f7 ff ff       	callq  110df <array_realloc>
   1198d:	8b 8b 54 02 00 00    	mov    0x254(%rbx),%ecx
   11993:	48 89 83 48 02 00 00 	mov    %rax,0x248(%rbx)
   1199a:	e9 e1 70 01 00       	jmpq   28a80 <ev_io_stop+0xd0>

000000000001199f <iouring_internal_destroy>:
   1199f:	53                   	push   %rbx
   119a0:	48 89 fb             	mov    %rdi,%rbx
   119a3:	8b bf 10 02 00 00    	mov    0x210(%rdi),%edi
   119a9:	e8 02 e7 ff ff       	callq  100b0 <close@plt>
   119ae:	8b bb a0 01 00 00    	mov    0x1a0(%rbx),%edi
   119b4:	e8 f7 e6 ff ff       	callq  100b0 <close@plt>
   119b9:	48 8b bb b0 01 00 00 	mov    0x1b0(%rbx),%rdi
   119c0:	48 83 ff ff          	cmp    $0xffffffffffffffff,%rdi
   119c4:	74 0b                	je     119d1 <iouring_internal_destroy+0x32>
   119c6:	8b b3 c8 01 00 00    	mov    0x1c8(%rbx),%esi
   119cc:	e8 0f ec ff ff       	callq  105e0 <munmap@plt>
   119d1:	48 8b bb b8 01 00 00 	mov    0x1b8(%rbx),%rdi
   119d8:	48 83 ff ff          	cmp    $0xffffffffffffffff,%rdi
   119dc:	74 0b                	je     119e9 <iouring_internal_destroy+0x4a>
   119de:	8b b3 cc 01 00 00    	mov    0x1cc(%rbx),%esi
   119e4:	e8 f7 eb ff ff       	callq  105e0 <munmap@plt>
   119e9:	48 8b bb c0 01 00 00 	mov    0x1c0(%rbx),%rdi
   119f0:	48 83 ff ff          	cmp    $0xffffffffffffffff,%rdi
   119f4:	74 0b                	je     11a01 <iouring_internal_destroy+0x62>
   119f6:	8b b3 d0 01 00 00    	mov    0x1d0(%rbx),%esi
   119fc:	e8 df eb ff ff       	callq  105e0 <munmap@plt>
   11a01:	83 bb 18 02 00 00 00 	cmpl   $0x0,0x218(%rbx)
   11a08:	74 17                	je     11a21 <iouring_internal_destroy+0x82>
   11a0a:	48 89 df             	mov    %rbx,%rdi
   11a0d:	e8 8e 6b 01 00       	callq  285a0 <ev_ref>
   11a12:	48 8d b3 18 02 00 00 	lea    0x218(%rbx),%rsi
   11a19:	48 89 df             	mov    %rbx,%rdi
   11a1c:	e8 8f 6f 01 00       	callq  289b0 <ev_io_stop>
   11a21:	5b                   	pop    %rbx
   11a22:	c3                   	retq   

0000000000011a23 <loop_init>:
   11a23:	41 54                	push   %r12
   11a25:	55                   	push   %rbp
   11a26:	53                   	push   %rbx
   11a27:	48 83 ec 20          	sub    $0x20,%rsp
   11a2b:	64 48 8b 04 25 28 00 	mov    %fs:0x28,%rax
   11a32:	00 00 
   11a34:	48 89 44 24 18       	mov    %rax,0x18(%rsp)
   11a39:	31 c0                	xor    %eax,%eax
   11a3b:	83 bf b8 00 00 00 00 	cmpl   $0x0,0xb8(%rdi)
   11a42:	0f 85 9f 03 00 00    	jne    11de7 <loop_init+0x3c4>
   11a48:	8b 05 c2 66 24 00    	mov    0x2466c2(%rip),%eax        # 258110 <have_monotonic>
   11a4e:	48 89 fb             	mov    %rdi,%rbx
   11a51:	89 f5                	mov    %esi,%ebp
   11a53:	89 b3 d8 04 00 00    	mov    %esi,0x4d8(%rbx)
   11a59:	85 c0                	test   %eax,%eax
   11a5b:	75 1b                	jne    11a78 <loop_init+0x55>
   11a5d:	48 89 e6             	mov    %rsp,%rsi
   11a60:	bf 01 00 00 00       	mov    $0x1,%edi
   11a65:	e8 76 e2 ff ff       	callq  fce0 <clock_gettime@plt>
   11a6a:	85 c0                	test   %eax,%eax
   11a6c:	75 0a                	jne    11a78 <loop_init+0x55>
   11a6e:	c7 05 98 66 24 00 01 	movl   $0x1,0x246698(%rip)        # 258110 <have_monotonic>
   11a75:	00 00 00 
   11a78:	0f ba e5 19          	bt     $0x19,%ebp
   11a7c:	73 0b                	jae    11a89 <loop_init+0x66>
   11a7e:	e8 8d e2 ff ff       	callq  fd10 <getpid@plt>
   11a83:	89 83 30 01 00 00    	mov    %eax,0x130(%rbx)
   11a89:	0f ba e5 18          	bt     $0x18,%ebp
   11a8d:	72 52                	jb     11ae1 <loop_init+0xbe>
   11a8f:	e8 cc e3 ff ff       	callq  fe60 <getuid@plt>
   11a94:	41 89 c4             	mov    %eax,%r12d
   11a97:	e8 b4 e5 ff ff       	callq  10050 <geteuid@plt>
   11a9c:	41 39 c4             	cmp    %eax,%r12d
   11a9f:	75 40                	jne    11ae1 <loop_init+0xbe>
   11aa1:	e8 da e8 ff ff       	callq  10380 <getgid@plt>
   11aa6:	41 89 c4             	mov    %eax,%r12d
   11aa9:	e8 92 ea ff ff       	callq  10540 <getegid@plt>
   11aae:	41 39 c4             	cmp    %eax,%r12d
   11ab1:	75 2e                	jne    11ae1 <loop_init+0xbe>
   11ab3:	48 8d 3d ea 08 03 00 	lea    0x308ea(%rip),%rdi        # 423a4 <__FUNCTION__.3752+0x164>
   11aba:	e8 91 df ff ff       	callq  fa50 <getenv@plt>
   11abf:	48 85 c0             	test   %rax,%rax
   11ac2:	74 1d                	je     11ae1 <loop_init+0xbe>
   11ac4:	48 8d 3d d9 08 03 00 	lea    0x308d9(%rip),%rdi        # 423a4 <__FUNCTION__.3752+0x164>
   11acb:	e8 80 df ff ff       	callq  fa50 <getenv@plt>

#ifdef __USE_EXTERN_INLINES
__extern_inline int
__NTH (atoi (const char *__nptr))
{
  return (int) strtol (__nptr, (char **) NULL, 10);
   11ad0:	ba 0a 00 00 00       	mov    $0xa,%edx
   11ad5:	31 f6                	xor    %esi,%esi
   11ad7:	48 89 c7             	mov    %rax,%rdi
   11ada:	e8 01 e8 ff ff       	callq  102e0 <strtol@plt>
   11adf:	89 c5                	mov    %eax,%ebp
   11ae1:	e8 fa 5e 01 00       	callq  279e0 <ev_time>
   11ae6:	8b 05 24 66 24 00    	mov    0x246624(%rip),%eax        # 258110 <have_monotonic>
   11aec:	f2 0f 11 03          	movsd  %xmm0,(%rbx)
   11af0:	85 c0                	test   %eax,%eax
   11af2:	74 28                	je     11b1c <loop_init+0xf9>
   11af4:	48 89 e6             	mov    %rsp,%rsi
   11af7:	bf 01 00 00 00       	mov    $0x1,%edi
   11afc:	e8 df e1 ff ff       	callq  fce0 <clock_gettime@plt>
   11b01:	f2 48 0f 2a 44 24 08 	cvtsi2sdq 0x8(%rsp),%xmm0
   11b08:	f2 0f 59 05 90 16 03 	mulsd  0x31690(%rip),%xmm0        # 431a0 <__PRETTY_FUNCTION__.11024+0x60>
   11b0f:	00 
   11b10:	f2 48 0f 2a 0c 24    	cvtsi2sdq (%rsp),%xmm1
   11b16:	f2 0f 58 c1          	addsd  %xmm1,%xmm0
   11b1a:	eb 05                	jmp    11b21 <loop_init+0xfe>
   11b1c:	e8 bf 5e 01 00       	callq  279e0 <ev_time>
   11b21:	48 8d 05 18 59 01 00 	lea    0x15918(%rip),%rax        # 27440 <ev_invoke_pending>
   11b28:	f2 0f 10 0b          	movsd  (%rbx),%xmm1
   11b2c:	f2 0f 11 43 10       	movsd  %xmm0,0x10(%rbx)
   11b31:	c7 83 e8 03 00 00 00 	movl   $0x0,0x3e8(%rbx)
   11b38:	00 00 00 
   11b3b:	48 89 83 00 05 00 00 	mov    %rax,0x500(%rbx)
   11b42:	89 e8                	mov    %ebp,%eax
   11b44:	f2 0f 5c c8          	subsd  %xmm0,%xmm1
   11b48:	25 00 00 10 00       	and    $0x100000,%eax
   11b4d:	f2 0f 11 43 08       	movsd  %xmm0,0x8(%rbx)
   11b52:	c7 83 10 03 00 00 00 	movl   $0x0,0x310(%rbx)
   11b59:	00 00 00 
   11b5c:	83 f8 01             	cmp    $0x1,%eax
   11b5f:	19 c0                	sbb    %eax,%eax
   11b61:	f2 0f 11 4b 18       	movsd  %xmm1,0x18(%rbx)
   11b66:	c7 83 2c 01 00 00 00 	movl   $0x0,0x12c(%rbx)
   11b6d:	00 00 00 
   11b70:	ff c8                	dec    %eax
   11b72:	89 83 28 03 00 00    	mov    %eax,0x328(%rbx)
   11b78:	89 e8                	mov    %ebp,%eax
   11b7a:	48 c7 83 a8 00 00 00 	movq   $0x0,0xa8(%rbx)
   11b81:	00 00 00 00 
   11b85:	25 00 00 20 00       	and    $0x200000,%eax
   11b8a:	48 c7 83 b0 00 00 00 	movq   $0x0,0xb0(%rbx)
   11b91:	00 00 00 00 
   11b95:	83 f8 01             	cmp    $0x1,%eax
   11b98:	c7 83 b8 00 00 00 00 	movl   $0x0,0xb8(%rbx)
   11b9f:	00 00 00 
   11ba2:	19 c0                	sbb    %eax,%eax
   11ba4:	c7 83 c4 00 00 00 ff 	movl   $0xffffffff,0xc4(%rbx)
   11bab:	ff ff ff 
   11bae:	83 c8 fe             	or     $0xfffffffe,%eax
   11bb1:	89 83 ec 03 00 00    	mov    %eax,0x3ec(%rbx)
   11bb7:	89 e8                	mov    %ebp,%eax
   11bb9:	c7 83 28 01 00 00 00 	movl   $0x0,0x128(%rbx)
   11bc0:	00 00 00 
   11bc3:	25 00 00 80 00       	and    $0x800000,%eax
   11bc8:	48 c7 83 ec 00 00 00 	movq   $0xffffffffffffffff,0xec(%rbx)
   11bcf:	ff ff ff ff 
   11bd3:	83 f8 01             	cmp    $0x1,%eax
   11bd6:	19 c0                	sbb    %eax,%eax
   11bd8:	ff c8                	dec    %eax
   11bda:	89 83 a0 04 00 00    	mov    %eax,0x4a0(%rbx)
   11be0:	66 85 ed             	test   %bp,%bp
   11be3:	75 14                	jne    11bf9 <loop_init+0x1d6>
   11be5:	e8 66 f7 ff ff       	callq  11350 <ev_recommended_backends>
   11bea:	83 bb b8 00 00 00 00 	cmpl   $0x0,0xb8(%rbx)
   11bf1:	0f 85 aa 01 00 00    	jne    11da1 <loop_init+0x37e>
   11bf7:	09 c5                	or     %eax,%ebp
   11bf9:	40 f6 c5 80          	test   $0x80,%bpl
   11bfd:	75 0f                	jne    11c0e <loop_init+0x1eb>
   11bff:	40 f6 c5 04          	test   $0x4,%bpl
   11c03:	0f 84 c1 00 00 00    	je     11cca <loop_init+0x2a7>
   11c09:	e9 a6 00 00 00       	jmpq   11cb4 <loop_init+0x291>
   11c0e:	48 c7 83 a8 01 00 00 	movq   $0x20,0x1a8(%rbx)
   11c15:	20 00 00 00 
   11c19:	48 89 df             	mov    %rbx,%rdi
   11c1c:	e8 bc f1 ff ff       	callq  10ddd <iouring_internal_init>
   11c21:	85 c0                	test   %eax,%eax
   11c23:	79 14                	jns    11c39 <loop_init+0x216>
   11c25:	48 89 df             	mov    %rbx,%rdi
   11c28:	e8 72 fd ff ff       	callq  1199f <iouring_internal_destroy>
   11c2d:	c7 83 b8 00 00 00 00 	movl   $0x0,0xb8(%rbx)
   11c34:	00 00 00 
   11c37:	eb c6                	jmp    11bff <loop_init+0x1dc>
   11c39:	48 8d 05 e0 57 01 00 	lea    0x157e0(%rip),%rax        # 27420 <iouring_tfd_cb>
   11c40:	48 89 df             	mov    %rbx,%rdi
   11c43:	c7 83 44 02 00 00 81 	movl   $0x81,0x244(%rbx)
   11c4a:	00 00 00 
   11c4d:	48 8d b3 18 02 00 00 	lea    0x218(%rbx),%rsi
   11c54:	48 89 83 30 02 00 00 	mov    %rax,0x230(%rbx)
   11c5b:	8b 83 10 02 00 00    	mov    0x210(%rbx),%eax
   11c61:	48 c7 83 18 02 00 00 	movq   $0x0,0x218(%rbx)
   11c68:	00 00 00 00 
   11c6c:	89 83 40 02 00 00    	mov    %eax,0x240(%rbx)
   11c72:	c7 83 20 02 00 00 fe 	movl   $0xfffffffe,0x220(%rbx)
   11c79:	ff ff ff 
   11c7c:	e8 df 6b 01 00       	callq  28860 <ev_io_start>
   11c81:	48 89 df             	mov    %rbx,%rdi
   11c84:	e8 27 69 01 00       	callq  285b0 <ev_unref>
   11c89:	48 8d 05 80 73 01 00 	lea    0x17380(%rip),%rax        # 29010 <iouring_modify>
   11c90:	c7 83 b8 00 00 00 80 	movl   $0x80,0xb8(%rbx)
   11c97:	00 00 00 
   11c9a:	48 89 83 d0 00 00 00 	mov    %rax,0xd0(%rbx)
   11ca1:	48 8d 05 68 70 01 00 	lea    0x17068(%rip),%rax        # 28d10 <iouring_poll>
   11ca8:	48 89 83 d8 00 00 00 	mov    %rax,0xd8(%rbx)
   11caf:	e9 ed 00 00 00       	jmpq   11da1 <loop_init+0x37e>
   11cb4:	48 89 df             	mov    %rbx,%rdi
   11cb7:	e8 aa f5 ff ff       	callq  11266 <epoll_init.isra.9>
   11cbc:	89 83 b8 00 00 00    	mov    %eax,0xb8(%rbx)
   11cc2:	85 c0                	test   %eax,%eax
   11cc4:	0f 85 d7 00 00 00    	jne    11da1 <loop_init+0x37e>
   11cca:	40 f6 c5 02          	test   $0x2,%bpl
   11cce:	74 61                	je     11d31 <loop_init+0x30e>
   11cd0:	48 8b 05 e9 d7 02 00 	mov    0x2d7e9(%rip),%rax        # 3f4c0 <f58_prefix+0x5d>
   11cd7:	48 c7 83 60 01 00 00 	movq   $0x0,0x160(%rbx)
   11cde:	00 00 00 00 
   11ce2:	48 c7 83 68 01 00 00 	movq   $0x0,0x168(%rbx)
   11ce9:	00 00 00 00 
   11ced:	48 89 83 c8 00 00 00 	mov    %rax,0xc8(%rbx)
   11cf4:	48 8d 05 45 59 01 00 	lea    0x15945(%rip),%rax        # 27640 <poll_modify>
   11cfb:	48 89 83 d0 00 00 00 	mov    %rax,0xd0(%rbx)
   11d02:	48 8d 05 27 76 01 00 	lea    0x17627(%rip),%rax        # 29330 <poll_poll>
   11d09:	48 89 83 d8 00 00 00 	mov    %rax,0xd8(%rbx)
   11d10:	48 c7 83 70 01 00 00 	movq   $0x0,0x170(%rbx)
   11d17:	00 00 00 00 
   11d1b:	c7 83 78 01 00 00 00 	movl   $0x0,0x178(%rbx)
   11d22:	00 00 00 
   11d25:	c7 83 b8 00 00 00 02 	movl   $0x2,0xb8(%rbx)
   11d2c:	00 00 00 
   11d2f:	eb 70                	jmp    11da1 <loop_init+0x37e>
   11d31:	40 80 e5 01          	and    $0x1,%bpl
   11d35:	74 6a                	je     11da1 <loop_init+0x37e>
   11d37:	48 8b 05 42 14 03 00 	mov    0x31442(%rip),%rax        # 43180 <__PRETTY_FUNCTION__.11024+0x40>
   11d3e:	c7 83 58 01 00 00 00 	movl   $0x0,0x158(%rbx)
   11d45:	00 00 00 
   11d48:	48 c7 83 38 01 00 00 	movq   $0x0,0x138(%rbx)
   11d4f:	00 00 00 00 
   11d53:	48 89 83 c8 00 00 00 	mov    %rax,0xc8(%rbx)
   11d5a:	48 8d 05 8f 5a 01 00 	lea    0x15a8f(%rip),%rax        # 277f0 <select_modify>
   11d61:	48 89 83 d0 00 00 00 	mov    %rax,0xd0(%rbx)
   11d68:	48 8d 05 a1 77 01 00 	lea    0x177a1(%rip),%rax        # 29510 <select_poll>
   11d6f:	48 89 83 d8 00 00 00 	mov    %rax,0xd8(%rbx)
   11d76:	48 c7 83 40 01 00 00 	movq   $0x0,0x140(%rbx)
   11d7d:	00 00 00 00 
   11d81:	48 c7 83 48 01 00 00 	movq   $0x0,0x148(%rbx)
   11d88:	00 00 00 00 
   11d8c:	48 c7 83 50 01 00 00 	movq   $0x0,0x150(%rbx)
   11d93:	00 00 00 00 
   11d97:	c7 83 b8 00 00 00 01 	movl   $0x1,0xb8(%rbx)
   11d9e:	00 00 00 
   11da1:	48 8d 05 68 56 01 00 	lea    0x15668(%rip),%rax        # 27410 <pendingcb>
   11da8:	48 c7 83 88 00 00 00 	movq   $0x0,0x88(%rbx)
   11daf:	00 00 00 00 
   11db3:	48 89 83 a0 00 00 00 	mov    %rax,0xa0(%rbx)
   11dba:	48 8d 05 df 64 01 00 	lea    0x164df(%rip),%rax        # 282a0 <pipecb>
   11dc1:	c7 83 90 00 00 00 00 	movl   $0x0,0x90(%rbx)
   11dc8:	00 00 00 
   11dcb:	48 89 83 10 01 00 00 	mov    %rax,0x110(%rbx)
   11dd2:	48 c7 83 f8 00 00 00 	movq   $0x0,0xf8(%rbx)
   11dd9:	00 00 00 00 
   11ddd:	c7 83 00 01 00 00 02 	movl   $0x2,0x100(%rbx)
   11de4:	00 00 00 
   11de7:	48 8b 44 24 18       	mov    0x18(%rsp),%rax
   11dec:	64 48 33 04 25 28 00 	xor    %fs:0x28,%rax
   11df3:	00 00 
   11df5:	74 05                	je     11dfc <loop_init+0x3d9>
   11df7:	e8 54 e0 ff ff       	callq  fe50 <__stack_chk_fail@plt>
   11dfc:	48 83 c4 20          	add    $0x20,%rsp
   11e00:	5b                   	pop    %rbx
   11e01:	5d                   	pop    %rbp
   11e02:	41 5c                	pop    %r12
   11e04:	c3                   	retq   

0000000000011e05 <ev_loop_new>:
   11e05:	f3 0f 1e fa          	endbr64 
   11e09:	55                   	push   %rbp
   11e0a:	89 fd                	mov    %edi,%ebp
   11e0c:	be 08 05 00 00       	mov    $0x508,%esi
   11e11:	31 ff                	xor    %edi,%edi
   11e13:	53                   	push   %rbx
   11e14:	51                   	push   %rcx
   11e15:	e8 06 58 01 00       	callq  27620 <ev_realloc>
   11e1a:	b9 42 01 00 00       	mov    $0x142,%ecx
   11e1f:	89 ee                	mov    %ebp,%esi
   11e21:	48 89 c3             	mov    %rax,%rbx
   11e24:	31 c0                	xor    %eax,%eax
   11e26:	48 89 df             	mov    %rbx,%rdi
   11e29:	f3 ab                	rep stos %eax,%es:(%rdi)
   11e2b:	48 89 df             	mov    %rbx,%rdi
   11e2e:	e8 f0 fb ff ff       	callq  11a23 <loop_init>
   11e33:	48 89 df             	mov    %rbx,%rdi
   11e36:	e8 75 66 01 00       	callq  284b0 <ev_backend>
   11e3b:	85 c0                	test   %eax,%eax
   11e3d:	75 0c                	jne    11e4b <ev_loop_new+0x46>
   11e3f:	48 89 df             	mov    %rbx,%rdi
   11e42:	31 f6                	xor    %esi,%esi
   11e44:	31 db                	xor    %ebx,%ebx
   11e46:	e8 d5 57 01 00       	callq  27620 <ev_realloc>
   11e4b:	48 89 d8             	mov    %rbx,%rax
   11e4e:	5a                   	pop    %rdx
   11e4f:	5b                   	pop    %rbx
   11e50:	5d                   	pop    %rbp
   11e51:	c3                   	retq   

0000000000011e52 <iouring_fork>:
   11e52:	55                   	push   %rbp
   11e53:	48 8d 2d 56 05 03 00 	lea    0x30556(%rip),%rbp        # 423b0 <__FUNCTION__.3752+0x170>
   11e5a:	53                   	push   %rbx
   11e5b:	48 89 fb             	mov    %rdi,%rbx
   11e5e:	52                   	push   %rdx
   11e5f:	e8 3b fb ff ff       	callq  1199f <iouring_internal_destroy>
   11e64:	48 89 df             	mov    %rbx,%rdi
   11e67:	e8 71 ef ff ff       	callq  10ddd <iouring_internal_init>
   11e6c:	85 c0                	test   %eax,%eax
   11e6e:	79 0a                	jns    11e7a <iouring_fork+0x28>
   11e70:	48 89 ef             	mov    %rbp,%rdi
   11e73:	e8 4c ef ff ff       	callq  10dc4 <ev_syserr>
   11e78:	eb ea                	jmp    11e64 <iouring_fork+0x12>
   11e7a:	48 8d ab 18 02 00 00 	lea    0x218(%rbx),%rbp
   11e81:	48 89 df             	mov    %rbx,%rdi
   11e84:	e8 95 f2 ff ff       	callq  1111e <fd_rearm_all>
   11e89:	48 89 ee             	mov    %rbp,%rsi
   11e8c:	48 89 df             	mov    %rbx,%rdi
   11e8f:	e8 1c 6b 01 00       	callq  289b0 <ev_io_stop>
   11e94:	8b 83 10 02 00 00    	mov    0x210(%rbx),%eax
   11e9a:	48 89 ee             	mov    %rbp,%rsi
   11e9d:	48 89 df             	mov    %rbx,%rdi
   11ea0:	c7 83 44 02 00 00 81 	movl   $0x81,0x244(%rbx)
   11ea7:	00 00 00 
   11eaa:	89 83 40 02 00 00    	mov    %eax,0x240(%rbx)
   11eb0:	58                   	pop    %rax
   11eb1:	5b                   	pop    %rbx
   11eb2:	5d                   	pop    %rbp
   11eb3:	e9 a8 69 01 00       	jmpq   28860 <ev_io_start>

0000000000011eb8 <iouring_handle_cq.cold.28>:
   11eb8:	e8 53 dc ff ff       	callq  fb10 <__errno_location@plt>
   11ebd:	89 ea                	mov    %ebp,%edx
   11ebf:	48 8d 3d 01 05 03 00 	lea    0x30501(%rip),%rdi        # 423c7 <__FUNCTION__.3752+0x187>
   11ec6:	f7 da                	neg    %edx
   11ec8:	89 10                	mov    %edx,(%rax)
   11eca:	e8 f5 ee ff ff       	callq  10dc4 <ev_syserr>
   11ecf:	49 8b 95 b8 01 00 00 	mov    0x1b8(%r13),%rdx
   11ed6:	e9 6c 6d 01 00       	jmpq   28c47 <iouring_handle_cq+0x177>
   11edb:	49 8d 95 50 02 00 00 	lea    0x250(%r13),%rdx
   11ee2:	48 89 c6             	mov    %rax,%rsi
   11ee5:	bf 04 00 00 00       	mov    $0x4,%edi
   11eea:	e8 f0 f1 ff ff       	callq  110df <array_realloc>
   11eef:	41 8b 8d 54 02 00 00 	mov    0x254(%r13),%ecx
   11ef6:	49 89 85 48 02 00 00 	mov    %rax,0x248(%r13)
   11efd:	e9 36 6d 01 00       	jmpq   28c38 <iouring_handle_cq+0x168>
   11f02:	e8 17 f2 ff ff       	callq  1111e <fd_rearm_all>
   11f07:	41 83 bd ac 01 00 00 	cmpl   $0x0,0x1ac(%r13)
   11f0e:	00 
   11f0f:	75 19                	jne    11f2a <iouring_handle_cq.cold.28+0x72>
   11f11:	41 d1 a5 a8 01 00 00 	shll   0x1a8(%r13)
   11f18:	4c 89 ef             	mov    %r13,%rdi
   11f1b:	e8 32 ff ff ff       	callq  11e52 <iouring_fork>
   11f20:	b8 01 00 00 00       	mov    $0x1,%eax
   11f25:	e9 3e 6d 01 00       	jmpq   28c68 <iouring_handle_cq+0x198>
   11f2a:	4c 89 ef             	mov    %r13,%rdi
   11f2d:	48 8d 1d 54 0a 03 00 	lea    0x30a54(%rip),%rbx        # 42988 <__FUNCTION__.3752+0x748>
   11f34:	e8 66 fa ff ff       	callq  1199f <iouring_internal_destroy>
   11f39:	41 c7 85 a4 01 00 00 	movl   $0x0,0x1a4(%r13)
   11f40:	00 00 00 00 
   11f44:	4c 89 ef             	mov    %r13,%rdi
   11f47:	e8 1a f3 ff ff       	callq  11266 <epoll_init.isra.9>
   11f4c:	41 89 85 b8 00 00 00 	mov    %eax,0xb8(%r13)
   11f53:	85 c0                	test   %eax,%eax
   11f55:	74 0a                	je     11f61 <iouring_handle_cq.cold.28+0xa9>
   11f57:	b8 01 00 00 00       	mov    $0x1,%eax
   11f5c:	e9 07 6d 01 00       	jmpq   28c68 <iouring_handle_cq+0x198>
   11f61:	48 89 df             	mov    %rbx,%rdi
   11f64:	e8 5b ee ff ff       	callq  10dc4 <ev_syserr>
   11f69:	eb d9                	jmp    11f44 <iouring_handle_cq.cold.28+0x8c>

0000000000011f6b <fd_kill>:
   11f6b:	41 55                	push   %r13
   11f6d:	41 bd 03 00 00 80    	mov    $0x80000003,%r13d
   11f73:	41 54                	push   %r12
   11f75:	55                   	push   %rbp
   11f76:	48 89 fd             	mov    %rdi,%rbp
   11f79:	53                   	push   %rbx
   11f7a:	48 63 de             	movslq %esi,%rbx
   11f7d:	52                   	push   %rdx
   11f7e:	48 c1 e3 04          	shl    $0x4,%rbx
   11f82:	48 8b 85 e0 00 00 00 	mov    0xe0(%rbp),%rax
   11f89:	4c 8b 24 18          	mov    (%rax,%rbx,1),%r12
   11f8d:	4d 85 e4             	test   %r12,%r12
   11f90:	74 1b                	je     11fad <fd_kill+0x42>
   11f92:	4c 89 e6             	mov    %r12,%rsi
   11f95:	48 89 ef             	mov    %rbp,%rdi
   11f98:	e8 13 6a 01 00       	callq  289b0 <ev_io_stop>
   11f9d:	44 89 ea             	mov    %r13d,%edx
   11fa0:	4c 89 e6             	mov    %r12,%rsi
   11fa3:	48 89 ef             	mov    %rbp,%rdi
   11fa6:	e8 95 5b 01 00       	callq  27b40 <ev_feed_event>
   11fab:	eb d5                	jmp    11f82 <fd_kill+0x17>
   11fad:	58                   	pop    %rax
   11fae:	5b                   	pop    %rbx
   11faf:	5d                   	pop    %rbp
   11fb0:	41 5c                	pop    %r12
   11fb2:	41 5d                	pop    %r13
   11fb4:	c3                   	retq   

0000000000011fb5 <epoll_modify.cold.29>:
   11fb5:	49 8d 96 9c 01 00 00 	lea    0x19c(%r14),%rdx
   11fbc:	bf 04 00 00 00       	mov    $0x4,%edi
   11fc1:	e8 19 f1 ff ff       	callq  110df <array_realloc>
   11fc6:	49 63 96 98 01 00 00 	movslq 0x198(%r14),%rdx
   11fcd:	49 89 86 90 01 00 00 	mov    %rax,0x190(%r14)
   11fd4:	48 89 c6             	mov    %rax,%rsi
   11fd7:	e9 ff 72 01 00       	jmpq   292db <epoll_modify+0x18b>

0000000000011fdc <fd_ebadf>:
   11fdc:	55                   	push   %rbp
   11fdd:	48 89 fd             	mov    %rdi,%rbp
   11fe0:	53                   	push   %rbx
   11fe1:	31 db                	xor    %ebx,%ebx
   11fe3:	52                   	push   %rdx
   11fe4:	39 9d e8 00 00 00    	cmp    %ebx,0xe8(%rbp)
   11fea:	7e 3f                	jle    1202b <fd_ebadf+0x4f>
   11fec:	48 89 d8             	mov    %rbx,%rax
   11fef:	48 c1 e0 04          	shl    $0x4,%rax
   11ff3:	48 03 85 e0 00 00 00 	add    0xe0(%rbp),%rax
   11ffa:	80 78 08 00          	cmpb   $0x0,0x8(%rax)
   11ffe:	74 26                	je     12026 <fd_ebadf+0x4a>
   12000:	31 c0                	xor    %eax,%eax
   12002:	be 01 00 00 00       	mov    $0x1,%esi
   12007:	89 df                	mov    %ebx,%edi
   12009:	e8 b2 dc ff ff       	callq  fcc0 <fcntl@plt>
   1200e:	ff c0                	inc    %eax
   12010:	75 14                	jne    12026 <fd_ebadf+0x4a>
   12012:	e8 f9 da ff ff       	callq  fb10 <__errno_location@plt>
   12017:	83 38 09             	cmpl   $0x9,(%rax)
   1201a:	75 0a                	jne    12026 <fd_ebadf+0x4a>
   1201c:	89 de                	mov    %ebx,%esi
   1201e:	48 89 ef             	mov    %rbp,%rdi
   12021:	e8 45 ff ff ff       	callq  11f6b <fd_kill>
   12026:	48 ff c3             	inc    %rbx
   12029:	eb b9                	jmp    11fe4 <fd_ebadf+0x8>
   1202b:	58                   	pop    %rax
   1202c:	5b                   	pop    %rbx
   1202d:	5d                   	pop    %rbp
   1202e:	c3                   	retq   

000000000001202f <fd_enomem>:
   1202f:	48 63 87 e8 00 00 00 	movslq 0xe8(%rdi),%rax
   12036:	8d 50 ff             	lea    -0x1(%rax),%edx
   12039:	48 c1 e0 04          	shl    $0x4,%rax
   1203d:	89 d6                	mov    %edx,%esi
   1203f:	83 fa ff             	cmp    $0xffffffff,%edx
   12042:	74 1a                	je     1205e <fd_enomem+0x2f>
   12044:	48 8b 8f e0 00 00 00 	mov    0xe0(%rdi),%rcx
   1204b:	ff ca                	dec    %edx
   1204d:	8a 4c 01 f8          	mov    -0x8(%rcx,%rax,1),%cl
   12051:	48 83 e8 10          	sub    $0x10,%rax
   12055:	84 c9                	test   %cl,%cl
   12057:	74 e4                	je     1203d <fd_enomem+0xe>
   12059:	e9 0d ff ff ff       	jmpq   11f6b <fd_kill>
   1205e:	c3                   	retq   

000000000001205f <poll_poll.cold.30>:
   1205f:	48 83 c4 10          	add    $0x10,%rsp
   12063:	4c 89 f7             	mov    %r14,%rdi
   12066:	5b                   	pop    %rbx
   12067:	5d                   	pop    %rbp
   12068:	41 5c                	pop    %r12
   1206a:	41 5d                	pop    %r13
   1206c:	41 5e                	pop    %r14
   1206e:	eb bf                	jmp    1202f <fd_enomem>
   12070:	48 83 c4 10          	add    $0x10,%rsp
   12074:	4c 89 f7             	mov    %r14,%rdi
   12077:	5b                   	pop    %rbx
   12078:	5d                   	pop    %rbp
   12079:	41 5c                	pop    %r12
   1207b:	41 5d                	pop    %r13
   1207d:	41 5e                	pop    %r14
   1207f:	e9 58 ff ff ff       	jmpq   11fdc <fd_ebadf>

0000000000012084 <select_poll.cold.31>:
   12084:	4c 89 ff             	mov    %r15,%rdi
   12087:	e8 a3 ff ff ff       	callq  1202f <fd_enomem>
   1208c:	e9 6e 76 01 00       	jmpq   296ff <select_poll+0x1ef>
   12091:	4c 89 ff             	mov    %r15,%rdi
   12094:	e8 43 ff ff ff       	callq  11fdc <fd_ebadf>
   12099:	e9 61 76 01 00       	jmpq   296ff <select_poll+0x1ef>

000000000001209e <ev_timer_start.cold.32>:
   1209e:	48 8b b5 58 02 00 00 	mov    0x258(%rbp),%rsi
   120a5:	8d 4f 01             	lea    0x1(%rdi),%ecx
   120a8:	48 8d 95 60 02 00 00 	lea    0x260(%rbp),%rdx
   120af:	bf 10 00 00 00       	mov    $0x10,%edi
   120b4:	e8 26 f0 ff ff       	callq  110df <array_realloc>
   120b9:	8b 3b                	mov    (%rbx),%edi
   120bb:	48 89 85 58 02 00 00 	mov    %rax,0x258(%rbp)
   120c2:	e9 28 77 01 00       	jmpq   297ef <ev_timer_start+0x7f>

00000000000120c7 <ev_periodic_start.cold.33>:
   120c7:	e8 13 f7 ff ff       	callq  117df <evtimerfd_init>
   120cc:	e9 66 81 01 00       	jmpq   2a237 <ev_periodic_start+0x27>
   120d1:	48 8b b5 68 02 00 00 	mov    0x268(%rbp),%rsi
   120d8:	8d 4f 01             	lea    0x1(%rdi),%ecx
   120db:	48 8d 95 70 02 00 00 	lea    0x270(%rbp),%rdx
   120e2:	bf 10 00 00 00       	mov    $0x10,%edi
   120e7:	e8 f3 ef ff ff       	callq  110df <array_realloc>
   120ec:	8b 3b                	mov    (%rbx),%edi
   120ee:	48 89 85 68 02 00 00 	mov    %rax,0x268(%rbp)
   120f5:	e9 9f 81 01 00       	jmpq   2a299 <ev_periodic_start+0x89>

00000000000120fa <ev_run.cold.34>:
   120fa:	4c 89 ff             	mov    %r15,%rdi
   120fd:	e8 6b f7 ff ff       	callq  1186d <evpipe_init>
   12102:	ba 00 00 00 01       	mov    $0x1000000,%edx
   12107:	48 89 de             	mov    %rbx,%rsi
   1210a:	4c 89 ff             	mov    %r15,%rdi
   1210d:	e8 2e 5a 01 00       	callq  27b40 <ev_feed_event>
   12112:	e9 27 92 01 00       	jmpq   2b33e <ev_run+0xc8e>
   12117:	41 8b bf c4 00 00 00 	mov    0xc4(%r15),%edi
   1211e:	48 8d 1d fa 02 03 00 	lea    0x302fa(%rip),%rbx        # 4241f <__FUNCTION__.3752+0x1df>
   12125:	e8 86 df ff ff       	callq  100b0 <close@plt>
   1212a:	e8 f0 f0 ff ff       	callq  1121f <epoll_epoll_create>
   1212f:	41 89 87 c4 00 00 00 	mov    %eax,0xc4(%r15)
   12136:	85 c0                	test   %eax,%eax
   12138:	79 60                	jns    1219a <ev_run.cold.34+0xa0>
   1213a:	48 89 df             	mov    %rbx,%rdi
   1213d:	e8 82 ec ff ff       	callq  10dc4 <ev_syserr>
   12142:	eb e6                	jmp    1212a <ev_run.cold.34+0x30>
   12144:	4c 89 ff             	mov    %r15,%rdi
   12147:	e8 06 fd ff ff       	callq  11e52 <iouring_fork>
   1214c:	41 8b 87 b8 00 00 00 	mov    0xb8(%r15),%eax
   12153:	e9 3a 90 01 00       	jmpq   2b192 <ev_run+0xae2>
   12158:	49 8d 57 28          	lea    0x28(%r15),%rdx
   1215c:	48 89 c6             	mov    %rax,%rsi
   1215f:	bf 08 00 00 00       	mov    $0x8,%edi
   12164:	e8 76 ef ff ff       	callq  110df <array_realloc>
   12169:	49 63 57 2c          	movslq 0x2c(%r15),%rdx
   1216d:	49 89 47 20          	mov    %rax,0x20(%r15)
   12171:	8d 4a 01             	lea    0x1(%rdx),%ecx
   12174:	e9 8f 8c 01 00       	jmpq   2ae08 <ev_run+0x758>
   12179:	49 8d 57 28          	lea    0x28(%r15),%rdx
   1217d:	48 89 c6             	mov    %rax,%rsi
   12180:	bf 08 00 00 00       	mov    $0x8,%edi
   12185:	e8 55 ef ff ff       	callq  110df <array_realloc>
   1218a:	49 63 57 2c          	movslq 0x2c(%r15),%rdx
   1218e:	49 89 47 20          	mov    %rax,0x20(%r15)
   12192:	8d 4a 01             	lea    0x1(%rdx),%ecx
   12195:	e9 65 8a 01 00       	jmpq   2abff <ev_run+0x54f>
   1219a:	4c 89 ff             	mov    %r15,%rdi
   1219d:	e8 7c ef ff ff       	callq  1111e <fd_rearm_all>
   121a2:	e9 f4 8f 01 00       	jmpq   2b19b <ev_run+0xaeb>
   121a7:	4c 89 ff             	mov    %r15,%rdi
   121aa:	e8 39 ee ff ff       	callq  10fe8 <periodics_reschedule>
   121af:	e9 cd 86 01 00       	jmpq   2a881 <ev_run+0x1d1>
   121b4:	4c 89 ff             	mov    %r15,%rdi
   121b7:	e8 2c ee ff ff       	callq  10fe8 <periodics_reschedule>
   121bc:	e9 a2 88 01 00       	jmpq   2aa63 <ev_run+0x3b3>

00000000000121c1 <ev_signal_start.cold.35>:
   121c1:	49 89 e5             	mov    %rsp,%r13
   121c4:	48 89 ef             	mov    %rbp,%rdi
   121c7:	e8 a1 f6 ff ff       	callq  1186d <evpipe_init>
   121cc:	4d 8d 65 08          	lea    0x8(%r13),%r12
   121d0:	48 8d 05 49 60 01 00 	lea    0x16049(%rip),%rax        # 28220 <ev_sighandler>
   121d7:	4c 89 e7             	mov    %r12,%rdi
   121da:	48 89 04 24          	mov    %rax,(%rsp)
   121de:	e8 3d e1 ff ff       	callq  10320 <sigfillset@plt>
   121e3:	8b 7b 28             	mov    0x28(%rbx),%edi
   121e6:	31 d2                	xor    %edx,%edx
   121e8:	4c 89 ee             	mov    %r13,%rsi
   121eb:	c7 84 24 88 00 00 00 	movl   $0x10000000,0x88(%rsp)
   121f2:	00 00 00 10 
   121f6:	e8 75 da ff ff       	callq  fc70 <sigaction@plt>
   121fb:	f6 85 da 04 00 00 40 	testb  $0x40,0x4da(%rbp)
   12202:	0f 84 84 99 01 00    	je     2bb8c <ev_signal_start+0xcc>
   12208:	4c 89 e7             	mov    %r12,%rdi
   1220b:	e8 90 e0 ff ff       	callq  102a0 <sigemptyset@plt>
   12210:	8b 73 28             	mov    0x28(%rbx),%esi
   12213:	4c 89 e7             	mov    %r12,%rdi
   12216:	e8 65 e8 ff ff       	callq  10a80 <sigaddset@plt>
   1221b:	31 d2                	xor    %edx,%edx
   1221d:	4c 89 e6             	mov    %r12,%rsi
   12220:	bf 01 00 00 00       	mov    $0x1,%edi
   12225:	e8 66 d8 ff ff       	callq  fa90 <sigprocmask@plt>
   1222a:	e9 5d 99 01 00       	jmpq   2bb8c <ev_signal_start+0xcc>

000000000001222f <ev_default_loop>:
   1222f:	f3 0f 1e fa          	endbr64 
   12233:	55                   	push   %rbp
   12234:	53                   	push   %rbx
   12235:	51                   	push   %rcx
   12236:	48 8d 2d e3 52 24 00 	lea    0x2452e3(%rip),%rbp        # 257520 <ev_default_loop_ptr>
   1223d:	48 83 7d 00 00       	cmpq   $0x0,0x0(%rbp)
   12242:	75 6f                	jne    122b3 <ev_default_loop+0x84>
   12244:	48 8d 1d b5 59 24 00 	lea    0x2459b5(%rip),%rbx        # 257c00 <default_loop_struct>
   1224b:	89 fe                	mov    %edi,%esi
   1224d:	48 89 df             	mov    %rbx,%rdi
   12250:	48 89 5d 00          	mov    %rbx,0x0(%rbp)
   12254:	e8 ca f7 ff ff       	callq  11a23 <loop_init>
   12259:	48 89 df             	mov    %rbx,%rdi
   1225c:	e8 4f 62 01 00       	callq  284b0 <ev_backend>
   12261:	85 c0                	test   %eax,%eax
   12263:	74 46                	je     122ab <ev_default_loop+0x7c>
  return __builtin___memmove_chk (__dest, __src, __len,
   12265:	48 8d 05 54 59 01 00 	lea    0x15954(%rip),%rax        # 27bc0 <childcb>
   1226c:	48 89 df             	mov    %rbx,%rdi
   1226f:	48 8d 35 ca 52 24 00 	lea    0x2452ca(%rip),%rsi        # 257540 <childev>
   12276:	c7 05 e8 52 24 00 11 	movl   $0x11,0x2452e8(%rip)        # 257568 <childev+0x28>
   1227d:	00 00 00 
   12280:	48 89 05 d1 52 24 00 	mov    %rax,0x2452d1(%rip)        # 257558 <childev+0x18>
   12287:	48 c7 05 ae 52 24 00 	movq   $0x0,0x2452ae(%rip)        # 257540 <childev>
   1228e:	00 00 00 00 
   12292:	c7 05 ac 52 24 00 02 	movl   $0x2,0x2452ac(%rip)        # 257548 <childev+0x8>
   12299:	00 00 00 
   1229c:	e8 1f 98 01 00       	callq  2bac0 <ev_signal_start>
   122a1:	48 89 df             	mov    %rbx,%rdi
   122a4:	e8 07 63 01 00       	callq  285b0 <ev_unref>
   122a9:	eb 08                	jmp    122b3 <ev_default_loop+0x84>
   122ab:	48 c7 45 00 00 00 00 	movq   $0x0,0x0(%rbp)
   122b2:	00 
   122b3:	48 8b 45 00          	mov    0x0(%rbp),%rax
   122b7:	5a                   	pop    %rdx
   122b8:	5b                   	pop    %rbx
   122b9:	5d                   	pop    %rbp
   122ba:	c3                   	retq   

00000000000122bb <ev_loop_destroy>:
   122bb:	f3 0f 1e fa          	endbr64 
   122bf:	48 85 ff             	test   %rdi,%rdi
   122c2:	0f 84 89 03 00 00    	je     12651 <ev_loop_destroy+0x396>
   122c8:	41 55                	push   %r13
   122ca:	41 54                	push   %r12
   122cc:	55                   	push   %rbp
   122cd:	53                   	push   %rbx
   122ce:	48 89 fb             	mov    %rdi,%rbx
   122d1:	51                   	push   %rcx
   122d2:	44 8b a7 0c 03 00 00 	mov    0x30c(%rdi),%r12d
   122d9:	45 85 e4             	test   %r12d,%r12d
   122dc:	74 2e                	je     1230c <ev_loop_destroy+0x51>
   122de:	4c 8b af 00 03 00 00 	mov    0x300(%rdi),%r13
   122e5:	31 ed                	xor    %ebp,%ebp
   122e7:	41 39 ec             	cmp    %ebp,%r12d
   122ea:	7e 17                	jle    12303 <ev_loop_destroy+0x48>
   122ec:	49 8b 74 ed 00       	mov    0x0(%r13,%rbp,8),%rsi
   122f1:	ba 00 00 04 00       	mov    $0x40000,%edx
   122f6:	48 89 df             	mov    %rbx,%rdi
   122f9:	48 ff c5             	inc    %rbp
   122fc:	e8 3f 58 01 00       	callq  27b40 <ev_feed_event>
   12301:	eb e4                	jmp    122e7 <ev_loop_destroy+0x2c>
   12303:	48 89 df             	mov    %rbx,%rdi
   12306:	ff 93 00 05 00 00    	callq  *0x500(%rbx)
   1230c:	4c 8d 25 0d 52 24 00 	lea    0x24520d(%rip),%r12        # 257520 <ev_default_loop_ptr>
   12313:	49 3b 1c 24          	cmp    (%r12),%rbx
   12317:	75 20                	jne    12339 <ev_loop_destroy+0x7e>
   12319:	83 3d 20 52 24 00 00 	cmpl   $0x0,0x245220(%rip)        # 257540 <childev>
   12320:	74 17                	je     12339 <ev_loop_destroy+0x7e>
   12322:	48 89 df             	mov    %rbx,%rdi
   12325:	e8 76 62 01 00       	callq  285a0 <ev_ref>
   1232a:	48 8d 35 0f 52 24 00 	lea    0x24520f(%rip),%rsi        # 257540 <childev>
   12331:	48 89 df             	mov    %rbx,%rdi
   12334:	e8 f7 99 01 00       	callq  2bd30 <ev_signal_stop>
   12339:	83 bb f8 00 00 00 00 	cmpl   $0x0,0xf8(%rbx)
   12340:	74 1e                	je     12360 <ev_loop_destroy+0xa5>
   12342:	8b bb ec 00 00 00    	mov    0xec(%rbx),%edi
   12348:	85 ff                	test   %edi,%edi
   1234a:	78 05                	js     12351 <ev_loop_destroy+0x96>
   1234c:	e8 5f dd ff ff       	callq  100b0 <close@plt>
   12351:	8b bb f0 00 00 00    	mov    0xf0(%rbx),%edi
   12357:	85 ff                	test   %edi,%edi
   12359:	78 05                	js     12360 <ev_loop_destroy+0xa5>
   1235b:	e8 50 dd ff ff       	callq  100b0 <close@plt>
   12360:	83 bb f0 03 00 00 00 	cmpl   $0x0,0x3f0(%rbx)
   12367:	74 0b                	je     12374 <ev_loop_destroy+0xb9>
   12369:	8b bb ec 03 00 00    	mov    0x3ec(%rbx),%edi
   1236f:	e8 3c dd ff ff       	callq  100b0 <close@plt>
   12374:	83 bb a8 04 00 00 00 	cmpl   $0x0,0x4a8(%rbx)
   1237b:	74 0b                	je     12388 <ev_loop_destroy+0xcd>
   1237d:	8b bb a0 04 00 00    	mov    0x4a0(%rbx),%edi
   12383:	e8 28 dd ff ff       	callq  100b0 <close@plt>
   12388:	8b bb 28 03 00 00    	mov    0x328(%rbx),%edi
   1238e:	85 ff                	test   %edi,%edi
   12390:	78 05                	js     12397 <ev_loop_destroy+0xdc>
   12392:	e8 19 dd ff ff       	callq  100b0 <close@plt>
   12397:	8b bb c4 00 00 00    	mov    0xc4(%rbx),%edi
   1239d:	85 ff                	test   %edi,%edi
   1239f:	78 05                	js     123a6 <ev_loop_destroy+0xeb>
   123a1:	e8 0a dd ff ff       	callq  100b0 <close@plt>
   123a6:	81 bb b8 00 00 00 80 	cmpl   $0x80,0xb8(%rbx)
   123ad:	00 00 00 
   123b0:	75 08                	jne    123ba <ev_loop_destroy+0xff>
   123b2:	48 89 df             	mov    %rbx,%rdi
   123b5:	e8 e5 f5 ff ff       	callq  1199f <iouring_internal_destroy>
   123ba:	83 bb b8 00 00 00 04 	cmpl   $0x4,0xb8(%rbx)
   123c1:	75 32                	jne    123f5 <ev_loop_destroy+0x13a>
   123c3:	48 8b bb 80 01 00 00 	mov    0x180(%rbx),%rdi
   123ca:	31 f6                	xor    %esi,%esi
   123cc:	e8 4f 52 01 00       	callq  27620 <ev_realloc>
   123d1:	48 8b bb 90 01 00 00 	mov    0x190(%rbx),%rdi
   123d8:	31 f6                	xor    %esi,%esi
   123da:	e8 41 52 01 00       	callq  27620 <ev_realloc>
   123df:	48 c7 83 90 01 00 00 	movq   $0x0,0x190(%rbx)
   123e6:	00 00 00 00 
   123ea:	48 c7 83 98 01 00 00 	movq   $0x0,0x198(%rbx)
   123f1:	00 00 00 00 
   123f5:	83 bb b8 00 00 00 02 	cmpl   $0x2,0xb8(%rbx)
   123fc:	75 1c                	jne    1241a <ev_loop_destroy+0x15f>
   123fe:	48 8b bb 70 01 00 00 	mov    0x170(%rbx),%rdi
   12405:	31 f6                	xor    %esi,%esi
   12407:	e8 14 52 01 00       	callq  27620 <ev_realloc>
   1240c:	48 8b bb 60 01 00 00 	mov    0x160(%rbx),%rdi
   12413:	31 f6                	xor    %esi,%esi
   12415:	e8 06 52 01 00       	callq  27620 <ev_realloc>
   1241a:	83 bb b8 00 00 00 01 	cmpl   $0x1,0xb8(%rbx)
   12421:	75 38                	jne    1245b <ev_loop_destroy+0x1a0>
   12423:	48 8b bb 38 01 00 00 	mov    0x138(%rbx),%rdi
   1242a:	31 f6                	xor    %esi,%esi
   1242c:	e8 ef 51 01 00       	callq  27620 <ev_realloc>
   12431:	48 8b bb 40 01 00 00 	mov    0x140(%rbx),%rdi
   12438:	31 f6                	xor    %esi,%esi
   1243a:	e8 e1 51 01 00       	callq  27620 <ev_realloc>
   1243f:	48 8b bb 48 01 00 00 	mov    0x148(%rbx),%rdi
   12446:	31 f6                	xor    %esi,%esi
   12448:	e8 d3 51 01 00       	callq  27620 <ev_realloc>
   1244d:	48 8b bb 50 01 00 00 	mov    0x150(%rbx),%rdi
   12454:	31 f6                	xor    %esi,%esi
   12456:	e8 c5 51 01 00       	callq  27620 <ev_realloc>
   1245b:	31 ed                	xor    %ebp,%ebp
   1245d:	48 83 ed 04          	sub    $0x4,%rbp
   12461:	48 83 fd e8          	cmp    $0xffffffffffffffe8,%rbp
   12465:	74 5b                	je     124c2 <ev_loop_destroy+0x207>
   12467:	48 8b 7c 6b 58       	mov    0x58(%rbx,%rbp,2),%rdi
   1246c:	31 f6                	xor    %esi,%esi
   1246e:	e8 ad 51 01 00       	callq  27620 <ev_realloc>
   12473:	c7 44 2b 6c 00 00 00 	movl   $0x0,0x6c(%rbx,%rbp,1)
   1247a:	00 
   1247b:	48 8b bc 6b a0 02 00 	mov    0x2a0(%rbx,%rbp,2),%rdi
   12482:	00 
   12483:	31 f6                	xor    %esi,%esi
   12485:	c7 84 2b 80 00 00 00 	movl   $0x0,0x80(%rbx,%rbp,1)
   1248c:	00 00 00 00 
   12490:	48 c7 44 6b 58 00 00 	movq   $0x0,0x58(%rbx,%rbp,2)
   12497:	00 00 
   12499:	e8 82 51 01 00       	callq  27620 <ev_realloc>
   1249e:	c7 84 2b b4 02 00 00 	movl   $0x0,0x2b4(%rbx,%rbp,1)
   124a5:	00 00 00 00 
   124a9:	c7 84 2b c8 02 00 00 	movl   $0x0,0x2c8(%rbx,%rbp,1)
   124b0:	00 00 00 00 
   124b4:	48 c7 84 6b a0 02 00 	movq   $0x0,0x2a0(%rbx,%rbp,2)
   124bb:	00 00 00 00 00 
   124c0:	eb 9b                	jmp    1245d <ev_loop_destroy+0x1a2>
   124c2:	48 8b bb e0 00 00 00 	mov    0xe0(%rbx),%rdi
   124c9:	31 f6                	xor    %esi,%esi
   124cb:	e8 50 51 01 00       	callq  27620 <ev_realloc>
   124d0:	48 8b 7b 20          	mov    0x20(%rbx),%rdi
   124d4:	31 f6                	xor    %esi,%esi
   124d6:	48 c7 83 e0 00 00 00 	movq   $0x0,0xe0(%rbx)
   124dd:	00 00 00 00 
   124e1:	c7 83 e8 00 00 00 00 	movl   $0x0,0xe8(%rbx)
   124e8:	00 00 00 
   124eb:	e8 30 51 01 00       	callq  27620 <ev_realloc>
   124f0:	48 c7 43 20 00 00 00 	movq   $0x0,0x20(%rbx)
   124f7:	00 
   124f8:	48 8b bb 48 02 00 00 	mov    0x248(%rbx),%rdi
   124ff:	31 f6                	xor    %esi,%esi
   12501:	48 c7 43 28 00 00 00 	movq   $0x0,0x28(%rbx)
   12508:	00 
   12509:	e8 12 51 01 00       	callq  27620 <ev_realloc>
   1250e:	48 8b bb 58 02 00 00 	mov    0x258(%rbx),%rdi
   12515:	31 f6                	xor    %esi,%esi
   12517:	48 c7 83 48 02 00 00 	movq   $0x0,0x248(%rbx)
   1251e:	00 00 00 00 
   12522:	48 c7 83 50 02 00 00 	movq   $0x0,0x250(%rbx)
   12529:	00 00 00 00 
   1252d:	e8 ee 50 01 00       	callq  27620 <ev_realloc>
   12532:	48 8b bb 68 02 00 00 	mov    0x268(%rbx),%rdi
   12539:	31 f6                	xor    %esi,%esi
   1253b:	48 c7 83 58 02 00 00 	movq   $0x0,0x258(%rbx)
   12542:	00 00 00 00 
   12546:	48 c7 83 60 02 00 00 	movq   $0x0,0x260(%rbx)
   1254d:	00 00 00 00 
   12551:	e8 ca 50 01 00       	callq  27620 <ev_realloc>
   12556:	48 8b bb f0 02 00 00 	mov    0x2f0(%rbx),%rdi
   1255d:	31 f6                	xor    %esi,%esi
   1255f:	48 c7 83 68 02 00 00 	movq   $0x0,0x268(%rbx)
   12566:	00 00 00 00 
   1256a:	48 c7 83 70 02 00 00 	movq   $0x0,0x270(%rbx)
   12571:	00 00 00 00 
   12575:	e8 a6 50 01 00       	callq  27620 <ev_realloc>
   1257a:	48 8b bb 00 03 00 00 	mov    0x300(%rbx),%rdi
   12581:	31 f6                	xor    %esi,%esi
   12583:	48 c7 83 f0 02 00 00 	movq   $0x0,0x2f0(%rbx)
   1258a:	00 00 00 00 
   1258e:	48 c7 83 f8 02 00 00 	movq   $0x0,0x2f8(%rbx)
   12595:	00 00 00 00 
   12599:	e8 82 50 01 00       	callq  27620 <ev_realloc>
   1259e:	48 8b bb d0 02 00 00 	mov    0x2d0(%rbx),%rdi
   125a5:	31 f6                	xor    %esi,%esi
   125a7:	48 c7 83 00 03 00 00 	movq   $0x0,0x300(%rbx)
   125ae:	00 00 00 00 
   125b2:	48 c7 83 08 03 00 00 	movq   $0x0,0x308(%rbx)
   125b9:	00 00 00 00 
   125bd:	e8 5e 50 01 00       	callq  27620 <ev_realloc>
   125c2:	48 8b bb e0 02 00 00 	mov    0x2e0(%rbx),%rdi
   125c9:	31 f6                	xor    %esi,%esi
   125cb:	48 c7 83 d0 02 00 00 	movq   $0x0,0x2d0(%rbx)
   125d2:	00 00 00 00 
   125d6:	48 c7 83 d8 02 00 00 	movq   $0x0,0x2d8(%rbx)
   125dd:	00 00 00 00 
   125e1:	e8 3a 50 01 00       	callq  27620 <ev_realloc>
   125e6:	48 8b bb 18 03 00 00 	mov    0x318(%rbx),%rdi
   125ed:	31 f6                	xor    %esi,%esi
   125ef:	48 c7 83 e0 02 00 00 	movq   $0x0,0x2e0(%rbx)
   125f6:	00 00 00 00 
   125fa:	48 c7 83 e8 02 00 00 	movq   $0x0,0x2e8(%rbx)
   12601:	00 00 00 00 
   12605:	e8 16 50 01 00       	callq  27620 <ev_realloc>
   1260a:	48 c7 83 18 03 00 00 	movq   $0x0,0x318(%rbx)
   12611:	00 00 00 00 
   12615:	48 c7 83 20 03 00 00 	movq   $0x0,0x320(%rbx)
   1261c:	00 00 00 00 
   12620:	c7 83 b8 00 00 00 00 	movl   $0x0,0xb8(%rbx)
   12627:	00 00 00 
   1262a:	49 3b 1c 24          	cmp    (%r12),%rbx
   1262e:	75 10                	jne    12640 <ev_loop_destroy+0x385>
   12630:	49 c7 04 24 00 00 00 	movq   $0x0,(%r12)
   12637:	00 
   12638:	5a                   	pop    %rdx
   12639:	5b                   	pop    %rbx
   1263a:	5d                   	pop    %rbp
   1263b:	41 5c                	pop    %r12
   1263d:	41 5d                	pop    %r13
   1263f:	c3                   	retq   
   12640:	58                   	pop    %rax
   12641:	48 89 df             	mov    %rbx,%rdi
   12644:	31 f6                	xor    %esi,%esi
   12646:	5b                   	pop    %rbx
   12647:	5d                   	pop    %rbp
   12648:	41 5c                	pop    %r12
   1264a:	41 5d                	pop    %r13
   1264c:	e9 cf 4f 01 00       	jmpq   27620 <ev_realloc>
   12651:	c3                   	retq   

0000000000012652 <ev_stat_start.cold.36>:
   12652:	c7 85 28 03 00 00 ff 	movl   $0xffffffff,0x328(%rbp)
   12659:	ff ff ff 
   1265c:	e8 4f e5 ff ff       	callq  10bb0 <ev_linux_version>
   12661:	3d 18 06 02 00       	cmp    $0x20618,%eax
   12666:	77 76                	ja     126de <ev_stat_start.cold.36+0x8c>
   12668:	bf 00 08 08 00       	mov    $0x80800,%edi
   1266d:	e8 1e e4 ff ff       	callq  10a90 <inotify_init1@plt>
   12672:	85 c0                	test   %eax,%eax
   12674:	78 71                	js     126e7 <ev_stat_start.cold.36+0x95>
   12676:	89 85 28 03 00 00    	mov    %eax,0x328(%rbp)
   1267c:	89 c7                	mov    %eax,%edi
   1267e:	e8 5d 4e 01 00       	callq  274e0 <fd_intern>
   12683:	48 8d 05 d6 9d 01 00 	lea    0x19dd6(%rip),%rax        # 2c460 <infy_cb>
   1268a:	48 8d b5 30 03 00 00 	lea    0x330(%rbp),%rsi
   12691:	48 89 ef             	mov    %rbp,%rdi
   12694:	48 89 85 48 03 00 00 	mov    %rax,0x348(%rbp)
   1269b:	8b 85 28 03 00 00    	mov    0x328(%rbp),%eax
   126a1:	c7 85 5c 03 00 00 81 	movl   $0x81,0x35c(%rbp)
   126a8:	00 00 00 
   126ab:	89 85 58 03 00 00    	mov    %eax,0x358(%rbp)
   126b1:	48 c7 85 30 03 00 00 	movq   $0x0,0x330(%rbp)
   126b8:	00 00 00 00 
   126bc:	c7 85 38 03 00 00 02 	movl   $0x2,0x338(%rbp)
   126c3:	00 00 00 
   126c6:	e8 95 61 01 00       	callq  28860 <ev_io_start>
   126cb:	48 89 ef             	mov    %rbp,%rdi
   126ce:	e8 dd 5e 01 00       	callq  285b0 <ev_unref>
   126d3:	8b 85 28 03 00 00    	mov    0x328(%rbp),%eax
   126d9:	e9 c2 9e 01 00       	jmpq   2c5a0 <ev_stat_start+0xa0>
   126de:	c6 85 60 03 00 00 01 	movb   $0x1,0x360(%rbp)
   126e5:	eb 81                	jmp    12668 <ev_stat_start.cold.36+0x16>
   126e7:	e8 54 dc ff ff       	callq  10340 <inotify_init@plt>
   126ec:	89 85 28 03 00 00    	mov    %eax,0x328(%rbp)
   126f2:	85 c0                	test   %eax,%eax
   126f4:	79 86                	jns    1267c <ev_stat_start.cold.36+0x2a>
   126f6:	e9 15 9f 01 00       	jmpq   2c610 <ev_stat_start+0x110>

00000000000126fb <ev_idle_start.cold.37>:
   126fb:	4c 8d 6c d5 00       	lea    0x0(%rbp,%rdx,8),%r13
   12700:	bf 08 00 00 00       	mov    $0x8,%edi
   12705:	48 8d 54 8d 00       	lea    0x0(%rbp,%rcx,4),%rdx
   1270a:	44 89 e1             	mov    %r12d,%ecx
   1270d:	49 8b b5 88 02 00 00 	mov    0x288(%r13),%rsi
   12714:	e8 c6 e9 ff ff       	callq  110df <array_realloc>
   12719:	49 89 85 88 02 00 00 	mov    %rax,0x288(%r13)
   12720:	8b 43 08             	mov    0x8(%rbx),%eax
   12723:	83 c0 02             	add    $0x2,%eax
   12726:	48 98                	cltq   
   12728:	e9 34 a0 01 00       	jmpq   2c761 <ev_idle_start+0x91>

000000000001272d <ev_prepare_start.cold.38>:
   1272d:	48 8b b3 d0 02 00 00 	mov    0x2d0(%rbx),%rsi
   12734:	48 8d 93 d8 02 00 00 	lea    0x2d8(%rbx),%rdx
   1273b:	bf 08 00 00 00       	mov    $0x8,%edi
   12740:	e8 9a e9 ff ff       	callq  110df <array_realloc>
   12745:	48 63 8b dc 02 00 00 	movslq 0x2dc(%rbx),%rcx
   1274c:	48 89 83 d0 02 00 00 	mov    %rax,0x2d0(%rbx)
   12753:	e9 33 a1 01 00       	jmpq   2c88b <ev_prepare_start+0x5b>

0000000000012758 <ev_check_start.cold.39>:
   12758:	48 8b b3 e0 02 00 00 	mov    0x2e0(%rbx),%rsi
   1275f:	48 8d 93 e8 02 00 00 	lea    0x2e8(%rbx),%rdx
   12766:	bf 08 00 00 00       	mov    $0x8,%edi
   1276b:	e8 6f e9 ff ff       	callq  110df <array_realloc>
   12770:	48 63 8b ec 02 00 00 	movslq 0x2ec(%rbx),%rcx
   12777:	48 89 83 e0 02 00 00 	mov    %rax,0x2e0(%rbx)
   1277e:	e9 f8 a1 01 00       	jmpq   2c97b <ev_check_start+0x5b>

0000000000012783 <ev_fork_start.cold.40>:
   12783:	48 8b b3 f0 02 00 00 	mov    0x2f0(%rbx),%rsi
   1278a:	48 8d 93 f8 02 00 00 	lea    0x2f8(%rbx),%rdx
   12791:	bf 08 00 00 00       	mov    $0x8,%edi
   12796:	e8 44 e9 ff ff       	callq  110df <array_realloc>
   1279b:	48 63 8b fc 02 00 00 	movslq 0x2fc(%rbx),%rcx
   127a2:	48 89 83 f0 02 00 00 	mov    %rax,0x2f0(%rbx)
   127a9:	e9 dd a2 01 00       	jmpq   2ca8b <ev_fork_start+0x5b>

00000000000127ae <ev_embed_start.cold.41>:
   127ae:	4c 8b 66 20          	mov    0x20(%rsi),%r12
   127b2:	48 89 f3             	mov    %rsi,%rbx
   127b5:	48 89 fd             	mov    %rdi,%rbp
   127b8:	45 8b ac 24 b8 00 00 	mov    0xb8(%r12),%r13d
   127bf:	00 
   127c0:	e8 99 eb ff ff       	callq  1135e <ev_embeddable_backends>
   127c5:	41 85 c5             	test   %eax,%r13d
   127c8:	0f 84 c0 00 00 00    	je     1288e <ev_embed_start.cold.41+0xe0>
   127ce:	48 8d 05 8b 92 01 00 	lea    0x1928b(%rip),%rax        # 2ba60 <embed_io_cb>
   127d5:	48 c7 43 28 00 00 00 	movq   $0x0,0x28(%rbx)
   127dc:	00 
   127dd:	48 8d 73 28          	lea    0x28(%rbx),%rsi
   127e1:	48 89 ef             	mov    %rbp,%rdi
   127e4:	48 89 43 40          	mov    %rax,0x40(%rbx)
   127e8:	41 8b 84 24 c4 00 00 	mov    0xc4(%r12),%eax
   127ef:	00 
   127f0:	c7 43 54 81 00 00 00 	movl   $0x81,0x54(%rbx)
   127f7:	89 43 50             	mov    %eax,0x50(%rbx)
   127fa:	8b 43 08             	mov    0x8(%rbx),%eax
   127fd:	89 43 30             	mov    %eax,0x30(%rbx)
   12800:	e8 5b 60 01 00       	callq  28860 <ev_io_start>
   12805:	48 8d 05 34 91 01 00 	lea    0x19134(%rip),%rax        # 2b940 <embed_prepare_cb>
   1280c:	48 8d 73 58          	lea    0x58(%rbx),%rsi
   12810:	48 89 ef             	mov    %rbp,%rdi
   12813:	48 89 43 70          	mov    %rax,0x70(%rbx)
   12817:	48 c7 43 58 00 00 00 	movq   $0x0,0x58(%rbx)
   1281e:	00 
   1281f:	c7 43 60 fe ff ff ff 	movl   $0xfffffffe,0x60(%rbx)
   12826:	e8 05 a0 01 00       	callq  2c830 <ev_prepare_start>
   1282b:	48 8d 05 ae a3 01 00 	lea    0x1a3ae(%rip),%rax        # 2cbe0 <embed_fork_cb>
   12832:	48 89 ef             	mov    %rbp,%rdi
   12835:	48 c7 83 28 01 00 00 	movq   $0x0,0x128(%rbx)
   1283c:	00 00 00 00 
   12840:	48 89 83 40 01 00 00 	mov    %rax,0x140(%rbx)
   12847:	48 8d b3 28 01 00 00 	lea    0x128(%rbx),%rsi
   1284e:	c7 83 30 01 00 00 00 	movl   $0x0,0x130(%rbx)
   12855:	00 00 00 
   12858:	e8 d3 a1 01 00       	callq  2ca30 <ev_fork_start>
   1285d:	8b 43 08             	mov    0x8(%rbx),%eax
   12860:	ba fe ff ff ff       	mov    $0xfffffffe,%edx
   12865:	48 89 ef             	mov    %rbp,%rdi
   12868:	c7 03 01 00 00 00    	movl   $0x1,(%rbx)
   1286e:	83 f8 fe             	cmp    $0xfffffffe,%eax
   12871:	0f 4c c2             	cmovl  %edx,%eax
   12874:	ba 02 00 00 00       	mov    $0x2,%edx
   12879:	83 f8 02             	cmp    $0x2,%eax
   1287c:	0f 4f c2             	cmovg  %edx,%eax
   1287f:	89 43 08             	mov    %eax,0x8(%rbx)
   12882:	58                   	pop    %rax
   12883:	5b                   	pop    %rbx
   12884:	5d                   	pop    %rbp
   12885:	41 5c                	pop    %r12
   12887:	41 5d                	pop    %r13
   12889:	e9 12 5d 01 00       	jmpq   285a0 <ev_ref>
   1288e:	48 8d 0d 2b 07 03 00 	lea    0x3072b(%rip),%rcx        # 42fc0 <__PRETTY_FUNCTION__.11628>
   12895:	ba 97 14 00 00       	mov    $0x1497,%edx
   1289a:	48 8d 35 c0 f9 02 00 	lea    0x2f9c0(%rip),%rsi        # 42261 <__FUNCTION__.3752+0x21>
   128a1:	48 8d 3d c0 06 03 00 	lea    0x306c0(%rip),%rdi        # 42f68 <__FUNCTION__.3752+0xd28>
   128a8:	e8 53 d7 ff ff       	callq  10000 <__assert_fail@plt>

00000000000128ad <ev_cleanup_start.cold.42>:
   128ad:	48 8b b3 00 03 00 00 	mov    0x300(%rbx),%rsi
   128b4:	48 8d 93 08 03 00 00 	lea    0x308(%rbx),%rdx
   128bb:	bf 08 00 00 00       	mov    $0x8,%edi
   128c0:	e8 1a e8 ff ff       	callq  110df <array_realloc>
   128c5:	48 63 8b 0c 03 00 00 	movslq 0x30c(%rbx),%rcx
   128cc:	48 89 83 00 03 00 00 	mov    %rax,0x300(%rbx)
   128d3:	e9 b3 a3 01 00       	jmpq   2cc8b <ev_cleanup_start+0x5b>

00000000000128d8 <ev_async_start.cold.43>:
   128d8:	c7 46 20 00 00 00 00 	movl   $0x0,0x20(%rsi)
   128df:	48 89 fd             	mov    %rdi,%rbp
   128e2:	48 89 f3             	mov    %rsi,%rbx
   128e5:	e8 83 ef ff ff       	callq  1186d <evpipe_init>
   128ea:	8b 85 24 03 00 00    	mov    0x324(%rbp),%eax
   128f0:	b9 fe ff ff ff       	mov    $0xfffffffe,%ecx
   128f5:	48 89 ef             	mov    %rbp,%rdi
   128f8:	8d 50 01             	lea    0x1(%rax),%edx
   128fb:	89 95 24 03 00 00    	mov    %edx,0x324(%rbp)
   12901:	8b 43 08             	mov    0x8(%rbx),%eax
   12904:	89 13                	mov    %edx,(%rbx)
   12906:	83 f8 fe             	cmp    $0xfffffffe,%eax
   12909:	0f 4c c1             	cmovl  %ecx,%eax
   1290c:	b9 02 00 00 00       	mov    $0x2,%ecx
   12911:	83 f8 02             	cmp    $0x2,%eax
   12914:	0f 4f c1             	cmovg  %ecx,%eax
   12917:	89 43 08             	mov    %eax,0x8(%rbx)
   1291a:	e8 81 5c 01 00       	callq  285a0 <ev_ref>
   1291f:	48 63 8d 24 03 00 00 	movslq 0x324(%rbp),%rcx
   12926:	3b 8d 20 03 00 00    	cmp    0x320(%rbp),%ecx
   1292c:	7e 26                	jle    12954 <ev_async_start.cold.43+0x7c>
   1292e:	48 8b b5 18 03 00 00 	mov    0x318(%rbp),%rsi
   12935:	48 8d 95 20 03 00 00 	lea    0x320(%rbp),%rdx
   1293c:	bf 08 00 00 00       	mov    $0x8,%edi
   12941:	e8 99 e7 ff ff       	callq  110df <array_realloc>
   12946:	48 63 8d 24 03 00 00 	movslq 0x324(%rbp),%rcx
   1294d:	48 89 85 18 03 00 00 	mov    %rax,0x318(%rbp)
   12954:	48 8b 85 18 03 00 00 	mov    0x318(%rbp),%rax
   1295b:	48 89 5c c8 f8       	mov    %rbx,-0x8(%rax,%rcx,8)
   12960:	e9 ef a3 01 00       	jmpq   2cd54 <ev_async_start+0x14>

0000000000012965 <.annobin_atexit.c.exit>:
   12965:	66 2e 0f 1f 84 00 00 	nopw   %cs:0x0(%rax,%rax,1)
   1296c:	00 00 00 
   1296f:	90                   	nop

0000000000012970 <deregister_tm_clones>:
   12970:	48 8d 3d 49 3a 24 00 	lea    0x243a49(%rip),%rdi        # 2563c0 <__TMC_END__>
   12977:	48 8d 05 42 3a 24 00 	lea    0x243a42(%rip),%rax        # 2563c0 <__TMC_END__>
   1297e:	48 39 f8             	cmp    %rdi,%rax
   12981:	74 15                	je     12998 <deregister_tm_clones+0x28>
   12983:	48 8b 05 26 06 24 00 	mov    0x240626(%rip),%rax        # 252fb0 <_ITM_deregisterTMCloneTable@Base>
   1298a:	48 85 c0             	test   %rax,%rax
   1298d:	74 09                	je     12998 <deregister_tm_clones+0x28>
   1298f:	ff e0                	jmpq   *%rax
   12991:	0f 1f 80 00 00 00 00 	nopl   0x0(%rax)
   12998:	c3                   	retq   
   12999:	0f 1f 80 00 00 00 00 	nopl   0x0(%rax)

00000000000129a0 <register_tm_clones>:
   129a0:	48 8d 3d 19 3a 24 00 	lea    0x243a19(%rip),%rdi        # 2563c0 <__TMC_END__>
   129a7:	48 8d 35 12 3a 24 00 	lea    0x243a12(%rip),%rsi        # 2563c0 <__TMC_END__>
   129ae:	48 29 fe             	sub    %rdi,%rsi
   129b1:	48 c1 fe 03          	sar    $0x3,%rsi
   129b5:	48 89 f0             	mov    %rsi,%rax
   129b8:	48 c1 e8 3f          	shr    $0x3f,%rax
   129bc:	48 01 c6             	add    %rax,%rsi
   129bf:	48 d1 fe             	sar    %rsi
   129c2:	74 14                	je     129d8 <register_tm_clones+0x38>
   129c4:	48 8b 05 05 06 24 00 	mov    0x240605(%rip),%rax        # 252fd0 <_ITM_registerTMCloneTable@Base>
   129cb:	48 85 c0             	test   %rax,%rax
   129ce:	74 08                	je     129d8 <register_tm_clones+0x38>
   129d0:	ff e0                	jmpq   *%rax
   129d2:	66 0f 1f 44 00 00    	nopw   0x0(%rax,%rax,1)
   129d8:	c3                   	retq   
   129d9:	0f 1f 80 00 00 00 00 	nopl   0x0(%rax)

00000000000129e0 <__do_global_dtors_aux>:
   129e0:	f3 0f 1e fa          	endbr64 
   129e4:	80 3d d5 39 24 00 00 	cmpb   $0x0,0x2439d5(%rip)        # 2563c0 <__TMC_END__>
   129eb:	75 2b                	jne    12a18 <__do_global_dtors_aux+0x38>
   129ed:	55                   	push   %rbp
   129ee:	48 83 3d ea 05 24 00 	cmpq   $0x0,0x2405ea(%rip)        # 252fe0 <__cxa_finalize@GLIBC_2.2.5>
   129f5:	00 
   129f6:	48 89 e5             	mov    %rsp,%rbp
   129f9:	74 0c                	je     12a07 <__do_global_dtors_aux+0x27>
   129fb:	48 8d 3d 1e f8 23 00 	lea    0x23f81e(%rip),%rdi        # 252220 <__dso_handle>
   12a02:	e8 59 e0 ff ff       	callq  10a60 <__cxa_finalize@plt>
   12a07:	e8 64 ff ff ff       	callq  12970 <deregister_tm_clones>
   12a0c:	c6 05 ad 39 24 00 01 	movb   $0x1,0x2439ad(%rip)        # 2563c0 <__TMC_END__>
   12a13:	5d                   	pop    %rbp
   12a14:	c3                   	retq   
   12a15:	0f 1f 00             	nopl   (%rax)
   12a18:	c3                   	retq   
   12a19:	0f 1f 80 00 00 00 00 	nopl   0x0(%rax)

0000000000012a20 <frame_dummy>:
   12a20:	f3 0f 1e fa          	endbr64 
   12a24:	e9 77 ff ff ff       	jmpq   129a0 <register_tm_clones>
   12a29:	0f 1f 80 00 00 00 00 	nopl   0x0(%rax)

0000000000012a30 <local_disconnect>:
   12a30:	53                   	push   %rbx
   12a31:	48 89 fb             	mov    %rdi,%rbx
   12a34:	48 8b 3f             	mov    (%rdi),%rdi
   12a37:	48 85 ff             	test   %rdi,%rdi
   12a3a:	74 0c                	je     12a48 <local_disconnect+0x18>
   12a3c:	e8 8f 36 02 00       	callq  360d0 <usock_client_destroy>
   12a41:	48 c7 03 00 00 00 00 	movq   $0x0,(%rbx)
   12a48:	8b 7b 20             	mov    0x20(%rbx),%edi
   12a4b:	85 ff                	test   %edi,%edi
   12a4d:	78 0c                	js     12a5b <local_disconnect+0x2b>
   12a4f:	e8 5c d6 ff ff       	callq  100b0 <close@plt>
   12a54:	c7 43 20 ff ff ff ff 	movl   $0xffffffff,0x20(%rbx)
   12a5b:	c7 43 10 ff ff ff ff 	movl   $0xffffffff,0x10(%rbx)
   12a62:	5b                   	pop    %rbx
   12a63:	c3                   	retq   

0000000000012a64 <.annobin_local_disconnect.end>:
   12a64:	66 66 2e 0f 1f 84 00 	data16 nopw %cs:0x0(%rax,%rax,1)
   12a6b:	00 00 00 00 
   12a6f:	90                   	nop

0000000000012a70 <op_recv>:
   12a70:	f3 0f 1e fa          	endbr64 
   12a74:	48 8b 3f             	mov    (%rdi),%rdi
   12a77:	e9 24 34 02 00       	jmpq   35ea0 <usock_client_recv>

0000000000012a7c <.annobin_op_pollevents.start>:
   12a7c:	0f 1f 40 00          	nopl   0x0(%rax)

0000000000012a80 <op_pollevents>:
   12a80:	f3 0f 1e fa          	endbr64 
   12a84:	48 8b 3f             	mov    (%rdi),%rdi
   12a87:	48 85 ff             	test   %rdi,%rdi
   12a8a:	74 0c                	je     12a98 <op_pollevents+0x18>
   12a8c:	e9 ff 32 02 00       	jmpq   35d90 <usock_client_pollevents>
   12a91:	0f 1f 80 00 00 00 00 	nopl   0x0(%rax)
   12a98:	31 c0                	xor    %eax,%eax
   12a9a:	c3                   	retq   

0000000000012a9b <.annobin_op_pollevents.end>:
   12a9b:	0f 1f 44 00 00       	nopl   0x0(%rax,%rax,1)

0000000000012aa0 <op_pollfd>:
   12aa0:	f3 0f 1e fa          	endbr64 
   12aa4:	48 8b 3f             	mov    (%rdi),%rdi
   12aa7:	48 85 ff             	test   %rdi,%rdi
   12aaa:	74 0c                	je     12ab8 <op_pollfd+0x18>
   12aac:	e9 5f 33 02 00       	jmpq   35e10 <usock_client_pollfd>
   12ab1:	0f 1f 80 00 00 00 00 	nopl   0x0(%rax)
   12ab8:	b8 ff ff ff ff       	mov    $0xffffffff,%eax
   12abd:	c3                   	retq   

0000000000012abe <.annobin_op_pollfd.end>:
   12abe:	66 90                	xchg   %ax,%ax

0000000000012ac0 <op_send>:
   12ac0:	f3 0f 1e fa          	endbr64 
   12ac4:	b8 ff ff ff ff       	mov    $0xffffffff,%eax
   12ac9:	48 39 47 08          	cmp    %rax,0x8(%rdi)
   12acd:	74 61                	je     12b30 <op_send+0x70>
   12acf:	41 54                	push   %r12
   12ad1:	48 89 f0             	mov    %rsi,%rax
   12ad4:	be 01 00 00 00       	mov    $0x1,%esi
   12ad9:	55                   	push   %rbp
   12ada:	89 d5                	mov    %edx,%ebp
   12adc:	53                   	push   %rbx
   12add:	48 89 fb             	mov    %rdi,%rbx
   12ae0:	48 89 c7             	mov    %rax,%rdi
   12ae3:	e8 08 d6 ff ff       	callq  100f0 <flux_msg_copy@plt>
   12ae8:	49 89 c4             	mov    %rax,%r12
   12aeb:	48 85 c0             	test   %rax,%rax
   12aee:	74 48                	je     12b38 <op_send+0x78>
   12af0:	8b 73 08             	mov    0x8(%rbx),%esi
   12af3:	48 89 c7             	mov    %rax,%rdi
   12af6:	e8 95 dd ff ff       	callq  10890 <flux_msg_set_userid@plt>
   12afb:	85 c0                	test   %eax,%eax
   12afd:	78 41                	js     12b40 <op_send+0x80>
   12aff:	8b 73 0c             	mov    0xc(%rbx),%esi
   12b02:	4c 89 e7             	mov    %r12,%rdi
   12b05:	e8 b6 d5 ff ff       	callq  100c0 <flux_msg_set_rolemask@plt>
   12b0a:	85 c0                	test   %eax,%eax
   12b0c:	78 32                	js     12b40 <op_send+0x80>
   12b0e:	48 8b 3b             	mov    (%rbx),%rdi
   12b11:	89 ea                	mov    %ebp,%edx
   12b13:	4c 89 e6             	mov    %r12,%rsi
   12b16:	e8 05 33 02 00       	callq  35e20 <usock_client_send>
   12b1b:	85 c0                	test   %eax,%eax
   12b1d:	78 21                	js     12b40 <op_send+0x80>
   12b1f:	4c 89 e7             	mov    %r12,%rdi
   12b22:	e8 79 d9 ff ff       	callq  104a0 <flux_msg_destroy@plt>
   12b27:	31 c0                	xor    %eax,%eax
   12b29:	5b                   	pop    %rbx
   12b2a:	5d                   	pop    %rbp
   12b2b:	41 5c                	pop    %r12
   12b2d:	c3                   	retq   
   12b2e:	66 90                	xchg   %ax,%ax
   12b30:	48 8b 3f             	mov    (%rdi),%rdi
   12b33:	e9 e8 32 02 00       	jmpq   35e20 <usock_client_send>
   12b38:	b8 ff ff ff ff       	mov    $0xffffffff,%eax
   12b3d:	eb ea                	jmp    12b29 <op_send+0x69>
   12b3f:	90                   	nop
   12b40:	4c 89 e7             	mov    %r12,%rdi
   12b43:	e8 58 d9 ff ff       	callq  104a0 <flux_msg_destroy@plt>
   12b48:	b8 ff ff ff ff       	mov    $0xffffffff,%eax
   12b4d:	eb da                	jmp    12b29 <op_send+0x69>

0000000000012b4f <.annobin_op_send.end>:
   12b4f:	90                   	nop

0000000000012b50 <op_setopt>:
   12b50:	f3 0f 1e fa          	endbr64 
   12b54:	48 83 ec 08          	sub    $0x8,%rsp
   12b58:	48 85 f6             	test   %rsi,%rsi
   12b5b:	74 6b                	je     12bc8 <op_setopt+0x78>
   12b5d:	49 89 fa             	mov    %rdi,%r10
   12b60:	49 89 c9             	mov    %rcx,%r9
   12b63:	48 8d 3d 96 b6 02 00 	lea    0x2b696(%rip),%rdi        # 3e200 <_fini+0x1c>
   12b6a:	49 89 f0             	mov    %rsi,%r8
   12b6d:	b9 15 00 00 00       	mov    $0x15,%ecx
   12b72:	f3 a6                	repz cmpsb %es:(%rdi),%ds:(%rsi)
   12b74:	0f 97 c0             	seta   %al
   12b77:	1c 00                	sbb    $0x0,%al
   12b79:	0f be c0             	movsbl %al,%eax
   12b7c:	85 c0                	test   %eax,%eax
   12b7e:	74 30                	je     12bb0 <op_setopt+0x60>
   12b80:	b9 17 00 00 00       	mov    $0x17,%ecx
   12b85:	48 8d 3d 89 b6 02 00 	lea    0x2b689(%rip),%rdi        # 3e215 <_fini+0x31>
   12b8c:	4c 89 c6             	mov    %r8,%rsi
   12b8f:	f3 a6                	repz cmpsb %es:(%rdi),%ds:(%rsi)
   12b91:	0f 97 c0             	seta   %al
   12b94:	1c 00                	sbb    $0x0,%al
   12b96:	0f be c0             	movsbl %al,%eax
   12b99:	85 c0                	test   %eax,%eax
   12b9b:	75 2b                	jne    12bc8 <op_setopt+0x78>
   12b9d:	49 83 f9 04          	cmp    $0x4,%r9
   12ba1:	75 25                	jne    12bc8 <op_setopt+0x78>
  return __builtin___memcpy_chk (__dest, __src, __len,
   12ba3:	8b 12                	mov    (%rdx),%edx
   12ba5:	41 89 52 0c          	mov    %edx,0xc(%r10)
   12ba9:	48 83 c4 08          	add    $0x8,%rsp
   12bad:	c3                   	retq   
   12bae:	66 90                	xchg   %ax,%ax
   12bb0:	49 83 f9 04          	cmp    $0x4,%r9
   12bb4:	75 12                	jne    12bc8 <op_setopt+0x78>
   12bb6:	8b 12                	mov    (%rdx),%edx
   12bb8:	41 89 52 08          	mov    %edx,0x8(%r10)
   12bbc:	48 83 c4 08          	add    $0x8,%rsp
   12bc0:	c3                   	retq   
   12bc1:	0f 1f 80 00 00 00 00 	nopl   0x0(%rax)
   12bc8:	f3 0f 1e fa          	endbr64 
   12bcc:	e8 3f cf ff ff       	callq  fb10 <__errno_location@plt>
   12bd1:	c7 00 16 00 00 00    	movl   $0x16,(%rax)
   12bd7:	b8 ff ff ff ff       	mov    $0xffffffff,%eax
   12bdc:	eb cb                	jmp    12ba9 <op_setopt+0x59>

0000000000012bde <.annobin_op_fini.part.4.start>:
   12bde:	66 90                	xchg   %ax,%ax

0000000000012be0 <op_fini.part.4>:
   12be0:	41 54                	push   %r12
   12be2:	55                   	push   %rbp
   12be3:	53                   	push   %rbx
   12be4:	48 89 fb             	mov    %rdi,%rbx
   12be7:	e8 24 cf ff ff       	callq  fb10 <__errno_location@plt>
   12bec:	48 89 df             	mov    %rbx,%rdi
   12bef:	48 89 c5             	mov    %rax,%rbp
   12bf2:	44 8b 20             	mov    (%rax),%r12d
   12bf5:	e8 36 fe ff ff       	callq  12a30 <local_disconnect>
   12bfa:	48 8b 7b 28          	mov    0x28(%rbx),%rdi
   12bfe:	e8 ad ce ff ff       	callq  fab0 <free@plt>
   12c03:	48 89 df             	mov    %rbx,%rdi
   12c06:	e8 a5 ce ff ff       	callq  fab0 <free@plt>
   12c0b:	44 89 65 00          	mov    %r12d,0x0(%rbp)
   12c0f:	5b                   	pop    %rbx
   12c10:	5d                   	pop    %rbp
   12c11:	41 5c                	pop    %r12
   12c13:	c3                   	retq   

0000000000012c14 <.annobin_op_fini.part.4.end>:
   12c14:	66 66 2e 0f 1f 84 00 	data16 nopw %cs:0x0(%rax,%rax,1)
   12c1b:	00 00 00 00 
   12c1f:	90                   	nop

0000000000012c20 <op_fini>:
   12c20:	f3 0f 1e fa          	endbr64 
   12c24:	48 85 ff             	test   %rdi,%rdi
   12c27:	74 07                	je     12c30 <op_fini+0x10>
   12c29:	eb b5                	jmp    12be0 <op_fini.part.4>
   12c2b:	0f 1f 44 00 00       	nopl   0x0(%rax,%rax,1)
   12c30:	c3                   	retq   

0000000000012c31 <.annobin_local_connect.start>:
   12c31:	66 66 2e 0f 1f 84 00 	data16 nopw %cs:0x0(%rax,%rax,1)
   12c38:	00 00 00 00 
   12c3c:	0f 1f 40 00          	nopl   0x0(%rax)

0000000000012c40 <local_connect>:
   12c40:	41 54                	push   %r12
   12c42:	55                   	push   %rbp
   12c43:	53                   	push   %rbx
   12c44:	48 89 fb             	mov    %rdi,%rbx
   12c47:	48 8d 3d ea b5 02 00 	lea    0x2b5ea(%rip),%rdi        # 3e238 <_fini+0x54>
   12c4e:	48 83 ec 30          	sub    $0x30,%rsp
   12c52:	64 48 8b 04 25 28 00 	mov    %fs:0x28,%rax
   12c59:	00 00 
   12c5b:	48 89 44 24 28       	mov    %rax,0x28(%rsp)
   12c60:	31 c0                	xor    %eax,%eax
   12c62:	48 8b 05 17 b6 02 00 	mov    0x2b617(%rip),%rax        # 3e280 <_fini+0x9c>
   12c69:	c7 44 24 10 05 00 00 	movl   $0x5,0x10(%rsp)
   12c70:	00 
   12c71:	48 89 44 24 18       	mov    %rax,0x18(%rsp)
   12c76:	48 8b 05 0b b6 02 00 	mov    0x2b60b(%rip),%rax        # 3e288 <_fini+0xa4>
   12c7d:	48 89 44 24 20       	mov    %rax,0x20(%rsp)
   12c82:	e8 c9 cd ff ff       	callq  fa50 <getenv@plt>
   12c87:	48 85 c0             	test   %rax,%rax
   12c8a:	74 3d                	je     12cc9 <local_connect+0x89>
   12c8c:	48 89 c5             	mov    %rax,%rbp
   12c8f:	e8 7c ce ff ff       	callq  fb10 <__errno_location@plt>
   12c94:	ba 0a 00 00 00       	mov    $0xa,%edx
   12c99:	48 8d 74 24 08       	lea    0x8(%rsp),%rsi
   12c9e:	48 89 ef             	mov    %rbp,%rdi
   12ca1:	c7 00 00 00 00 00    	movl   $0x0,(%rax)
   12ca7:	49 89 c4             	mov    %rax,%r12
   12caa:	e8 31 d6 ff ff       	callq  102e0 <strtol@plt>
   12caf:	41 8b 14 24          	mov    (%r12),%edx
   12cb3:	85 d2                	test   %edx,%edx
   12cb5:	0f 85 85 00 00 00    	jne    12d40 <local_connect+0x100>
   12cbb:	48 8b 54 24 08       	mov    0x8(%rsp),%rdx
   12cc0:	80 3a 00             	cmpb   $0x0,(%rdx)
   12cc3:	75 7b                	jne    12d40 <local_connect+0x100>
   12cc5:	89 44 24 10          	mov    %eax,0x10(%rsp)
   12cc9:	48 83 ec 08          	sub    $0x8,%rsp
   12ccd:	48 8b 7b 28          	mov    0x28(%rbx),%rdi
   12cd1:	ff 74 24 28          	pushq  0x28(%rsp)
   12cd5:	ff 74 24 28          	pushq  0x28(%rsp)
   12cd9:	ff 74 24 28          	pushq  0x28(%rsp)
   12cdd:	e8 1e 32 02 00       	callq  35f00 <usock_client_connect>
   12ce2:	48 83 c4 20          	add    $0x20,%rsp
   12ce6:	89 43 20             	mov    %eax,0x20(%rbx)
   12ce9:	85 c0                	test   %eax,%eax
   12ceb:	78 43                	js     12d30 <local_connect+0xf0>
   12ced:	48 8d 74 24 08       	lea    0x8(%rsp),%rsi
   12cf2:	89 c7                	mov    %eax,%edi
   12cf4:	e8 a7 2b 02 00       	callq  358a0 <usock_get_cred>
   12cf9:	85 c0                	test   %eax,%eax
   12cfb:	78 33                	js     12d30 <local_connect+0xf0>
   12cfd:	8b 7b 20             	mov    0x20(%rbx),%edi
   12d00:	e8 1b 34 02 00       	callq  36120 <usock_client_create>
   12d05:	48 89 03             	mov    %rax,(%rbx)
   12d08:	48 85 c0             	test   %rax,%rax
   12d0b:	74 23                	je     12d30 <local_connect+0xf0>
   12d0d:	8b 44 24 08          	mov    0x8(%rsp),%eax
   12d11:	89 43 10             	mov    %eax,0x10(%rbx)
   12d14:	31 c0                	xor    %eax,%eax
   12d16:	48 8b 4c 24 28       	mov    0x28(%rsp),%rcx
   12d1b:	64 48 33 0c 25 28 00 	xor    %fs:0x28,%rcx
   12d22:	00 00 
   12d24:	75 29                	jne    12d4f <local_connect+0x10f>
   12d26:	48 83 c4 30          	add    $0x30,%rsp
   12d2a:	5b                   	pop    %rbx
   12d2b:	5d                   	pop    %rbp
   12d2c:	41 5c                	pop    %r12
   12d2e:	c3                   	retq   
   12d2f:	90                   	nop
   12d30:	b8 ff ff ff ff       	mov    $0xffffffff,%eax
   12d35:	eb df                	jmp    12d16 <local_connect+0xd6>
   12d37:	66 0f 1f 84 00 00 00 	nopw   0x0(%rax,%rax,1)
   12d3e:	00 00 
   12d40:	41 c7 04 24 16 00 00 	movl   $0x16,(%r12)
   12d47:	00 
   12d48:	b8 ff ff ff ff       	mov    $0xffffffff,%eax
   12d4d:	eb c7                	jmp    12d16 <local_connect+0xd6>
   12d4f:	e8 fc d0 ff ff       	callq  fe50 <__stack_chk_fail@plt>

0000000000012d54 <.annobin_local_connect.end>:
   12d54:	66 66 2e 0f 1f 84 00 	data16 nopw %cs:0x0(%rax,%rax,1)
   12d5b:	00 00 00 00 
   12d5f:	90                   	nop

0000000000012d60 <op_reconnect>:
   12d60:	f3 0f 1e fa          	endbr64 
   12d64:	53                   	push   %rbx
   12d65:	48 89 fb             	mov    %rdi,%rbx
   12d68:	e8 c3 fc ff ff       	callq  12a30 <local_disconnect>
   12d6d:	48 89 df             	mov    %rbx,%rdi
   12d70:	5b                   	pop    %rbx
   12d71:	e9 ca fe ff ff       	jmpq   12c40 <local_connect>

0000000000012d76 <.annobin_op_getopt.start>:
   12d76:	66 2e 0f 1f 84 00 00 	nopw   %cs:0x0(%rax,%rax,1)
   12d7d:	00 00 00 

0000000000012d80 <op_getopt>:
   12d80:	f3 0f 1e fa          	endbr64 
   12d84:	48 83 ec 08          	sub    $0x8,%rsp
   12d88:	48 85 f6             	test   %rsi,%rsi
   12d8b:	74 33                	je     12dc0 <op_getopt+0x40>
   12d8d:	49 89 f9             	mov    %rdi,%r9
   12d90:	49 89 c8             	mov    %rcx,%r8
   12d93:	48 8d 3d 92 b4 02 00 	lea    0x2b492(%rip),%rdi        # 3e22c <_fini+0x48>
   12d9a:	b9 0c 00 00 00       	mov    $0xc,%ecx
   12d9f:	f3 a6                	repz cmpsb %es:(%rdi),%ds:(%rsi)
   12da1:	0f 97 c0             	seta   %al
   12da4:	1c 00                	sbb    $0x0,%al
   12da6:	0f be c0             	movsbl %al,%eax
   12da9:	85 c0                	test   %eax,%eax
   12dab:	75 13                	jne    12dc0 <op_getopt+0x40>
   12dad:	49 83 f8 04          	cmp    $0x4,%r8
   12db1:	75 0d                	jne    12dc0 <op_getopt+0x40>
   12db3:	41 8b 49 10          	mov    0x10(%r9),%ecx
   12db7:	89 0a                	mov    %ecx,(%rdx)
   12db9:	48 83 c4 08          	add    $0x8,%rsp
   12dbd:	c3                   	retq   
   12dbe:	66 90                	xchg   %ax,%ax
   12dc0:	f3 0f 1e fa          	endbr64 
   12dc4:	e8 47 cd ff ff       	callq  fb10 <__errno_location@plt>
   12dc9:	c7 00 16 00 00 00    	movl   $0x16,(%rax)
   12dcf:	b8 ff ff ff ff       	mov    $0xffffffff,%eax
   12dd4:	eb e3                	jmp    12db9 <op_getopt+0x39>

0000000000012dd6 <.annobin_connector_init.start>:
   12dd6:	66 2e 0f 1f 84 00 00 	nopw   %cs:0x0(%rax,%rax,1)
   12ddd:	00 00 00 

0000000000012de0 <connector_init>:
   12de0:	f3 0f 1e fa          	endbr64 
   12de4:	41 55                	push   %r13
   12de6:	41 54                	push   %r12
   12de8:	55                   	push   %rbp
   12de9:	53                   	push   %rbx
   12dea:	48 83 ec 08          	sub    $0x8,%rsp
   12dee:	48 85 ff             	test   %rdi,%rdi
   12df1:	0f 84 b9 00 00 00    	je     12eb0 <connector_init+0xd0>
   12df7:	48 89 fd             	mov    %rdi,%rbp
   12dfa:	41 89 f4             	mov    %esi,%r12d
   12dfd:	bf 01 00 00 00       	mov    $0x1,%edi
   12e02:	be 30 00 00 00       	mov    $0x30,%esi
   12e07:	49 89 d5             	mov    %rdx,%r13
   12e0a:	e8 01 d4 ff ff       	callq  10210 <calloc@plt>
   12e0f:	48 89 c3             	mov    %rax,%rbx
   12e12:	48 85 c0             	test   %rax,%rax
   12e15:	0f 84 b5 00 00 00    	je     12ed0 <connector_init+0xf0>
   12e1b:	b8 ff ff ff ff       	mov    $0xffffffff,%eax
   12e20:	48 89 ef             	mov    %rbp,%rdi
   12e23:	c7 43 10 ff ff ff ff 	movl   $0xffffffff,0x10(%rbx)
   12e2a:	48 89 43 08          	mov    %rax,0x8(%rbx)
   12e2e:	c7 43 20 ff ff ff ff 	movl   $0xffffffff,0x20(%rbx)
   12e35:	e8 66 db ff ff       	callq  109a0 <strdup@plt>
   12e3a:	48 89 43 28          	mov    %rax,0x28(%rbx)
   12e3e:	48 85 c0             	test   %rax,%rax
   12e41:	74 53                	je     12e96 <connector_init+0xb6>
   12e43:	48 89 df             	mov    %rbx,%rdi
   12e46:	e8 f5 fd ff ff       	callq  12c40 <local_connect>
   12e4b:	85 c0                	test   %eax,%eax
   12e4d:	78 29                	js     12e78 <connector_init+0x98>
   12e4f:	44 89 e2             	mov    %r12d,%edx
   12e52:	48 8d 35 e7 f3 23 00 	lea    0x23f3e7(%rip),%rsi        # 252240 <handle_ops>
   12e59:	48 89 df             	mov    %rbx,%rdi
   12e5c:	e8 bf cc ff ff       	callq  fb20 <flux_handle_create@plt>
   12e61:	48 89 43 18          	mov    %rax,0x18(%rbx)
   12e65:	48 85 c0             	test   %rax,%rax
   12e68:	74 2c                	je     12e96 <connector_init+0xb6>
   12e6a:	48 83 c4 08          	add    $0x8,%rsp
   12e6e:	5b                   	pop    %rbx
   12e6f:	5d                   	pop    %rbp
   12e70:	41 5c                	pop    %r12
   12e72:	41 5d                	pop    %r13
   12e74:	c3                   	retq   
   12e75:	0f 1f 00             	nopl   (%rax)
   12e78:	e8 93 cc ff ff       	callq  fb10 <__errno_location@plt>
   12e7d:	83 38 02             	cmpl   $0x2,(%rax)
   12e80:	75 14                	jne    12e96 <connector_init+0xb6>
   12e82:	48 89 ea             	mov    %rbp,%rdx
   12e85:	48 8d 35 d4 b3 02 00 	lea    0x2b3d4(%rip),%rsi        # 3e260 <_fini+0x7c>
   12e8c:	4c 89 ef             	mov    %r13,%rdi
   12e8f:	31 c0                	xor    %eax,%eax
   12e91:	e8 1a 92 00 00       	callq  1c0b0 <errprintf>
   12e96:	48 89 df             	mov    %rbx,%rdi
   12e99:	e8 42 fd ff ff       	callq  12be0 <op_fini.part.4>
   12e9e:	48 83 c4 08          	add    $0x8,%rsp
   12ea2:	31 c0                	xor    %eax,%eax
   12ea4:	5b                   	pop    %rbx
   12ea5:	5d                   	pop    %rbp
   12ea6:	41 5c                	pop    %r12
   12ea8:	41 5d                	pop    %r13
   12eaa:	c3                   	retq   
   12eab:	0f 1f 44 00 00       	nopl   0x0(%rax,%rax,1)
   12eb0:	e8 5b cc ff ff       	callq  fb10 <__errno_location@plt>
   12eb5:	c7 00 16 00 00 00    	movl   $0x16,(%rax)
   12ebb:	48 83 c4 08          	add    $0x8,%rsp
   12ebf:	31 c0                	xor    %eax,%eax
   12ec1:	5b                   	pop    %rbx
   12ec2:	5d                   	pop    %rbp
   12ec3:	41 5c                	pop    %r12
   12ec5:	41 5d                	pop    %r13
   12ec7:	c3                   	retq   
   12ec8:	0f 1f 84 00 00 00 00 	nopl   0x0(%rax,%rax,1)
   12ecf:	00 
   12ed0:	48 83 c4 08          	add    $0x8,%rsp
   12ed4:	31 c0                	xor    %eax,%eax
   12ed6:	5b                   	pop    %rbx
   12ed7:	5d                   	pop    %rbp
   12ed8:	41 5c                	pop    %r12
   12eda:	41 5d                	pop    %r13
   12edc:	c3                   	retq   

0000000000012edd <.annobin_connector_init.end>:
   12edd:	0f 1f 00             	nopl   (%rax)

0000000000012ee0 <iovec_to_msg>:
   12ee0:	f3 0f 1e fa          	endbr64 
   12ee4:	41 57                	push   %r15
   12ee6:	41 56                	push   %r14
   12ee8:	41 55                	push   %r13
   12eea:	41 54                	push   %r12
   12eec:	55                   	push   %rbp
   12eed:	53                   	push   %rbx
   12eee:	48 83 ec 08          	sub    $0x8,%rsp
   12ef2:	48 85 ff             	test   %rdi,%rdi
   12ef5:	0f 84 22 02 00 00    	je     1311d <iovec_to_msg+0x23d>
   12efb:	49 89 f6             	mov    %rsi,%r14
   12efe:	48 85 f6             	test   %rsi,%rsi
   12f01:	0f 84 f7 01 00 00    	je     130fe <iovec_to_msg+0x21e>
   12f07:	41 89 d5             	mov    %edx,%r13d
   12f0a:	85 d2                	test   %edx,%edx
   12f0c:	0f 8e d5 01 00 00    	jle    130e7 <iovec_to_msg+0x207>
   12f12:	48 63 c2             	movslq %edx,%rax
   12f15:	49 89 fc             	mov    %rdi,%r12
   12f18:	48 8d 7f 30          	lea    0x30(%rdi),%rdi
   12f1c:	48 8d 04 40          	lea    (%rax,%rax,2),%rax
   12f20:	48 8d 44 c6 e8       	lea    -0x18(%rsi,%rax,8),%rax
   12f25:	48 8b 50 08          	mov    0x8(%rax),%rdx
   12f29:	48 8b 30             	mov    (%rax),%rsi
   12f2c:	e8 8f 06 00 00       	callq  135c0 <proto_decode>
   12f31:	85 c0                	test   %eax,%eax
   12f33:	78 69                	js     12f9e <iovec_to_msg+0xbe>
   12f35:	41 0f b6 44 24 30    	movzbl 0x30(%r12),%eax
   12f3b:	8d 50 fc             	lea    -0x4(%rax),%edx
   12f3e:	81 e2 fb 00 00 00    	and    $0xfb,%edx
   12f44:	74 0b                	je     12f51 <iovec_to_msg+0x71>
   12f46:	83 e8 01             	sub    $0x1,%eax
   12f49:	3c 01                	cmp    $0x1,%al
   12f4b:	0f 87 96 01 00 00    	ja     130e7 <iovec_to_msg+0x207>
   12f51:	41 0f b6 5c 24 31    	movzbl 0x31(%r12),%ebx
   12f57:	f6 c3 08             	test   $0x8,%bl
   12f5a:	74 5c                	je     12fb8 <iovec_to_msg+0xd8>
   12f5c:	49 8b 56 08          	mov    0x8(%r14),%rdx
   12f60:	48 85 d2             	test   %rdx,%rdx
   12f63:	0f 84 8e 01 00 00    	je     130f7 <iovec_to_msg+0x217>
   12f69:	4c 89 f3             	mov    %r14,%rbx
   12f6c:	31 ed                	xor    %ebp,%ebp
   12f6e:	eb 1f                	jmp    12f8f <iovec_to_msg+0xaf>
   12f70:	8d 45 01             	lea    0x1(%rbp),%eax
   12f73:	44 39 e8             	cmp    %r13d,%eax
   12f76:	0f 84 04 01 00 00    	je     13080 <iovec_to_msg+0x1a0>
   12f7c:	48 83 c3 18          	add    $0x18,%rbx
   12f80:	48 8b 53 08          	mov    0x8(%rbx),%rdx
   12f84:	48 85 d2             	test   %rdx,%rdx
   12f87:	0f 84 0b 01 00 00    	je     13098 <iovec_to_msg+0x1b8>
   12f8d:	89 c5                	mov    %eax,%ebp
   12f8f:	48 8b 33             	mov    (%rbx),%rsi
   12f92:	4c 89 e7             	mov    %r12,%rdi
   12f95:	e8 26 08 00 00       	callq  137c0 <msg_route_append>
   12f9a:	85 c0                	test   %eax,%eax
   12f9c:	79 d2                	jns    12f70 <iovec_to_msg+0x90>
   12f9e:	48 83 c4 08          	add    $0x8,%rsp
   12fa2:	b8 ff ff ff ff       	mov    $0xffffffff,%eax
   12fa7:	5b                   	pop    %rbx
   12fa8:	5d                   	pop    %rbp
   12fa9:	41 5c                	pop    %r12
   12fab:	41 5d                	pop    %r13
   12fad:	41 5e                	pop    %r14
   12faf:	41 5f                	pop    %r15
   12fb1:	c3                   	retq   
   12fb2:	66 0f 1f 44 00 00    	nopw   0x0(%rax,%rax,1)
   12fb8:	f6 c3 01             	test   $0x1,%bl
   12fbb:	0f 84 7f 00 00 00    	je     13040 <iovec_to_msg+0x160>
   12fc1:	49 8b 76 08          	mov    0x8(%r14),%rsi
   12fc5:	49 8b 3e             	mov    (%r14),%rdi
   12fc8:	e8 c3 d1 ff ff       	callq  10190 <strndup@plt>
   12fcd:	49 89 44 24 18       	mov    %rax,0x18(%r12)
   12fd2:	48 85 c0             	test   %rax,%rax
   12fd5:	74 c7                	je     12f9e <iovec_to_msg+0xbe>
   12fd7:	bd 01 00 00 00       	mov    $0x1,%ebp
   12fdc:	83 e3 02             	and    $0x2,%ebx
   12fdf:	74 45                	je     13026 <iovec_to_msg+0x146>
   12fe1:	44 39 ed             	cmp    %r13d,%ebp
   12fe4:	0f 84 fd 00 00 00    	je     130e7 <iovec_to_msg+0x207>
   12fea:	41 89 ef             	mov    %ebp,%r15d
   12fed:	4b 8d 04 7f          	lea    (%r15,%r15,2),%rax
   12ff1:	4d 8d 34 c6          	lea    (%r14,%rax,8),%r14
   12ff5:	49 8b 5e 08          	mov    0x8(%r14),%rbx
   12ff9:	49 89 5c 24 28       	mov    %rbx,0x28(%r12)
   12ffe:	48 89 df             	mov    %rbx,%rdi
   13001:	e8 1a d4 ff ff       	callq  10420 <malloc@plt>
   13006:	49 89 44 24 20       	mov    %rax,0x20(%r12)
   1300b:	48 85 c0             	test   %rax,%rax
   1300e:	74 8e                	je     12f9e <iovec_to_msg+0xbe>
   13010:	49 8b 36             	mov    (%r14),%rsi
   13013:	48 89 da             	mov    %rbx,%rdx
   13016:	48 89 c7             	mov    %rax,%rdi
   13019:	e8 f2 d2 ff ff       	callq  10310 <memcpy@plt>
   1301e:	44 39 ed             	cmp    %r13d,%ebp
   13021:	73 0c                	jae    1302f <iovec_to_msg+0x14f>
   13023:	83 c5 01             	add    $0x1,%ebp
   13026:	44 39 ed             	cmp    %r13d,%ebp
   13029:	0f 84 b8 00 00 00    	je     130e7 <iovec_to_msg+0x207>
   1302f:	48 83 c4 08          	add    $0x8,%rsp
   13033:	31 c0                	xor    %eax,%eax
   13035:	5b                   	pop    %rbx
   13036:	5d                   	pop    %rbp
   13037:	41 5c                	pop    %r12
   13039:	41 5d                	pop    %r13
   1303b:	41 5e                	pop    %r14
   1303d:	41 5f                	pop    %r15
   1303f:	c3                   	retq   
   13040:	83 e3 02             	and    $0x2,%ebx
   13043:	74 ea                	je     1302f <iovec_to_msg+0x14f>
   13045:	49 8b 5e 08          	mov    0x8(%r14),%rbx
   13049:	49 89 5c 24 28       	mov    %rbx,0x28(%r12)
   1304e:	48 89 df             	mov    %rbx,%rdi
   13051:	e8 ca d3 ff ff       	callq  10420 <malloc@plt>
   13056:	49 89 44 24 20       	mov    %rax,0x20(%r12)
   1305b:	48 85 c0             	test   %rax,%rax
   1305e:	0f 84 3a ff ff ff    	je     12f9e <iovec_to_msg+0xbe>
   13064:	49 8b 36             	mov    (%r14),%rsi
   13067:	48 89 da             	mov    %rbx,%rdx
   1306a:	48 89 c7             	mov    %rax,%rdi
   1306d:	31 ed                	xor    %ebp,%ebp
   1306f:	e8 9c d2 ff ff       	callq  10310 <memcpy@plt>
   13074:	eb ad                	jmp    13023 <iovec_to_msg+0x143>
   13076:	66 2e 0f 1f 84 00 00 	nopw   %cs:0x0(%rax,%rax,1)
   1307d:	00 00 00 
   13080:	41 0f b6 44 24 31    	movzbl 0x31(%r12),%eax
   13086:	a8 01                	test   $0x1,%al
   13088:	75 5d                	jne    130e7 <iovec_to_msg+0x207>
   1308a:	a8 02                	test   $0x2,%al
   1308c:	75 59                	jne    130e7 <iovec_to_msg+0x207>
   1308e:	44 89 ed             	mov    %r13d,%ebp
   13091:	eb 93                	jmp    13026 <iovec_to_msg+0x146>
   13093:	0f 1f 44 00 00       	nopl   0x0(%rax,%rax,1)
   13098:	41 0f b6 5c 24 31    	movzbl 0x31(%r12),%ebx
   1309e:	83 c5 02             	add    $0x2,%ebp
   130a1:	f6 c3 01             	test   $0x1,%bl
   130a4:	0f 84 32 ff ff ff    	je     12fdc <iovec_to_msg+0xfc>
   130aa:	44 39 ed             	cmp    %r13d,%ebp
   130ad:	74 38                	je     130e7 <iovec_to_msg+0x207>
   130af:	41 89 ef             	mov    %ebp,%r15d
   130b2:	4b 8d 04 7f          	lea    (%r15,%r15,2),%rax
   130b6:	49 8d 04 c6          	lea    (%r14,%rax,8),%rax
   130ba:	48 8b 70 08          	mov    0x8(%rax),%rsi
   130be:	48 8b 38             	mov    (%rax),%rdi
   130c1:	e8 ca d0 ff ff       	callq  10190 <strndup@plt>
   130c6:	49 89 44 24 18       	mov    %rax,0x18(%r12)
   130cb:	48 85 c0             	test   %rax,%rax
   130ce:	0f 84 ca fe ff ff    	je     12f9e <iovec_to_msg+0xbe>
   130d4:	44 39 ed             	cmp    %r13d,%ebp
   130d7:	72 63                	jb     1313c <iovec_to_msg+0x25c>
   130d9:	83 e3 02             	and    $0x2,%ebx
   130dc:	0f 85 0b ff ff ff    	jne    12fed <iovec_to_msg+0x10d>
   130e2:	e9 3f ff ff ff       	jmpq   13026 <iovec_to_msg+0x146>
   130e7:	e8 24 ca ff ff       	callq  fb10 <__errno_location@plt>
   130ec:	c7 00 47 00 00 00    	movl   $0x47,(%rax)
   130f2:	e9 a7 fe ff ff       	jmpq   12f9e <iovec_to_msg+0xbe>
   130f7:	bd 01 00 00 00       	mov    $0x1,%ebp
   130fc:	eb a3                	jmp    130a1 <iovec_to_msg+0x1c1>
   130fe:	48 8d 0d cb b1 02 00 	lea    0x2b1cb(%rip),%rcx        # 3e2d0 <__PRETTY_FUNCTION__.5438>
   13105:	ba 22 00 00 00       	mov    $0x22,%edx
   1310a:	48 8d 35 7f b1 02 00 	lea    0x2b17f(%rip),%rsi        # 3e290 <_fini+0xac>
   13111:	48 8d 3d 8c b1 02 00 	lea    0x2b18c(%rip),%rdi        # 3e2a4 <_fini+0xc0>
   13118:	e8 e3 ce ff ff       	callq  10000 <__assert_fail@plt>
   1311d:	48 8d 0d ac b1 02 00 	lea    0x2b1ac(%rip),%rcx        # 3e2d0 <__PRETTY_FUNCTION__.5438>
   13124:	ba 21 00 00 00       	mov    $0x21,%edx
   13129:	48 8d 35 60 b1 02 00 	lea    0x2b160(%rip),%rsi        # 3e290 <_fini+0xac>
   13130:	48 8d 3d 69 b1 02 00 	lea    0x2b169(%rip),%rdi        # 3e2a0 <_fini+0xbc>
   13137:	e8 c4 ce ff ff       	callq  10000 <__assert_fail@plt>
   1313c:	83 c5 01             	add    $0x1,%ebp
   1313f:	e9 98 fe ff ff       	jmpq   12fdc <iovec_to_msg+0xfc>

0000000000013144 <.annobin_iovec_to_msg.end>:
   13144:	66 66 2e 0f 1f 84 00 	data16 nopw %cs:0x0(%rax,%rax,1)
   1314b:	00 00 00 00 
   1314f:	90                   	nop

0000000000013150 <msg_to_iovec>:
   13150:	f3 0f 1e fa          	endbr64 
   13154:	41 57                	push   %r15
   13156:	41 56                	push   %r14
   13158:	41 55                	push   %r13
   1315a:	41 54                	push   %r12
